(lp0
(I1
(lp1
V200190837
p2
aV203021424
p3
aV200193288
p4
aV146783266
p5
aV125385558
p6
aV195406564
p7
aV187404610
p8
aV202946282
p9
aV99580378
p10
aV127818776
p11
aV201407713
p12
aV203261498
p13
aV195763717
p14
aV199999294
p15
aV181935379
p16
aV199640190
p17
aV202772175
p18
aV182317012
p19
aV182780338
p20
aV181273166
p21
aV201284700
p22
aV202677911
p23
aV180957866
p24
aV195131634
p25
aV182512014
p26
aV184310836
p27
aV160835480
p28
aV149650762
p29
aV179651891
p30
aV152844324
p31
atp32
a(I2
(lp33
V186259001
p34
aV174807968
p35
aV184140553
p36
aV180956951
p37
aV201282126
p38
aV203991455
p39
aV198047081
p40
aV175718037
p41
aV190520026
p42
aV182278258
p43
aV203993419
p44
aV203785819
p45
aV203035504
p46
aV173507392
p47
aV201586934
p48
aV201587646
p49
aV195522185
p50
aV138303708
p51
aV111193095
p52
aV202040384
p53
aV203491358
p54
aV185504203
p55
aV201289735
p56
aV152944004
p57
aV160704887
p58
aV200210655
p59
aV196073253
p60
aV142830943
p61
aV167458162
p62
aV194273904
p63
atp64
a(I3
(lp65
V190994723
p66
aV173781581
p67
aV128195423
p68
aV17738212
p69
aV141534296
p70
aV198056665
p71
aV203782423
p72
aV188783536
p73
aV160182819
p74
aV29263820
p75
aV180958495
p76
aV201588289
p77
aV200207354
p78
aV190200483
p79
aV131641867
p80
aV187771931
p81
aV171637634
p82
aV166552690
p83
aV104086532
p84
aV201608271
p85
aV201808155
p86
aV104602756
p87
aV202083759
p88
aV201526780
p89
aV189891837
p90
aV128938739
p91
aV169448782
p92
aV163701031
p93
aV201559660
p94
aV174145084
p95
atp96
a(I4
(lp97
V201585331
p98
aV150685878
p99
aV182600731
p100
aV200849934
p101
aV197230798
p102
aV183530521
p103
aV197982823
p104
aV203932237
p105
aV201394760
p106
aV195523185
p107
aV129552409
p108
aV193759699
p109
aV167118631
p110
aV43938362
p111
aV202483884
p112
aV148476034
p113
aV157467140
p114
aV188816461
p115
aV138159030
p116
aV110448037
p117
aV162026829
p118
aV123155992
p119
aV180092545
p120
aV203654743
p121
aV202537570
p122
aV159447906
p123
aV188494099
p124
aV188109120
p125
aV186982108
p126
aV185379456
p127
atp128
a(I5
(lp129
V186424714
p130
aV175709568
p131
aV162384426
p132
aV202288518
p133
aV200048657
p134
aV202033174
p135
aV171887611
p136
aV181570513
p137
aV201977097
p138
aV158913605
p139
aV186178609
p140
aV175011431
p141
aV92418180
p142
aV203162914
p143
aV164645252
p144
aV202507482
p145
aV201289505
p146
aV185443665
p147
aV182857229
p148
aV198041491
p149
aV166897020
p150
aV131962538
p151
aV130053220
p152
aV171948008
p153
aV184217951
p154
aV189511349
p155
aV131077892
p156
aV200210860
p157
aV195540137
p158
aV151411545
p159
atp160
a(I6
(lp161
V146234473
p162
aV189931588
p163
aV184014300
p164
aV187894100
p165
aV201609581
p166
aV192795793
p167
aV149429496
p168
aV128018741
p169
aV203911031
p170
aV194775424
p171
aV198643822
p172
aV179687911
p173
aV201486129
p174
aV122546698
p175
aV68911851
p176
aV24127875
p177
aV186526947
p178
aV62383070
p179
aV146503847
p180
aV158644728
p181
aV185124394
p182
aV136735984
p183
aV188472218
p184
aV160420928
p185
aV123720123
p186
aV130198562
p187
aV196920130
p188
aV184952297
p189
aV201628415
p190
aV201589444
p191
atp192
a(I7
(lp193
V201589444
p194
aV167112992
p195
aV169084892
p196
aV203461388
p197
aV141389151
p198
aV188191190
p199
aV141111063
p200
aV173854369
p201
aV155296763
p202
aV183173664
p203
aV196701874
p204
aV117873532
p205
aV192317344
p206
aV183892315
p207
aV203079722
p208
aV188777767
p209
aV201298701
p210
aV201281609
p211
aV191049899
p212
aV195701537
p213
aV159783257
p214
aV158686309
p215
aV196143423
p216
aV183021516
p217
aV203769785
p218
aV185713988
p219
aV203823699
p220
aV137100401
p221
aV157867392
p222
aV140401316
p223
atp224
a(I8
(lp225
V200210369
p226
aV191439921
p227
aV186957168
p228
aV202244919
p229
aV203925660
p230
aV147000274
p231
aV180956575
p232
aV191643153
p233
aV122225152
p234
aV181522305
p235
aV194172089
p236
aV149570795
p237
aV92847252
p238
aV178769309
p239
aV185006500
p240
aV178340237
p241
aV176123452
p242
aV189220777
p243
aV144504526
p244
aV201614495
p245
aV126844505
p246
aV169609725
p247
aV202251107
p248
aV171753467
p249
aV195810960
p250
aV180373729
p251
aV115558720
p252
aV203775445
p253
aV174959552
p254
aV201587147
p255
atp256
a(I9
(lp257
V195810960
p258
aV180373729
p259
aV115558720
p260
aV203775445
p261
aV174959552
p262
aV201587147
p263
aV203730031
p264
aV196365009
p265
aV182121692
p266
aV190723033
p267
aV162061212
p268
aV200211045
p269
aV200190036
p270
aV203146924
p271
aV202121332
p272
aV196372238
p273
aV136493104
p274
aV191502144
p275
aV126843128
p276
aV201287224
p277
aV201285657
p278
aV202246071
p279
aV196555589
p280
aV201182654
p281
aV134751082
p282
aV198484304
p283
aV194170447
p284
aV180958736
p285
aV155294679
p286
aV160636787
p287
atp288
a(I10
(lp289
V197076847
p290
aV200633936
p291
aV186459939
p292
aV160155696
p293
aV175794905
p294
aV195121341
p295
aV145613788
p296
aV146846553
p297
aV168564996
p298
aV118604099
p299
aV188952497
p300
aV30478451
p301
aV160364822
p302
aV197452257
p303
aV200879801
p304
aV182785920
p305
aV196677373
p306
aV203212980
p307
aV195145127
p308
aV181522910
p309
aV192277887
p310
aV203804803
p311
aV180957582
p312
aV183021897
p313
aV165697425
p314
aV85617774
p315
aV200971044
p316
aV109211043
p317
aV194261614
p318
aV188816356
p319
atp320
a(I11
(lp321
V194261614
p322
aV188816356
p323
aV174951552
p324
aV144168994
p325
aV147815120
p326
aV195763151
p327
aV201311231
p328
aV199930413
p329
aV191772637
p330
aV123713399
p331
aV143367899
p332
aV129602399
p333
aV178759179
p334
aV183076446
p335
aV184923241
p336
aV198716348
p337
aV79861481
p338
aV195743267
p339
aV172157565
p340
aV200573931
p341
aV168181947
p342
aV178050133
p343
aV200971689
p344
aV119234238
p345
aV138503714
p346
aV191539068
p347
aV174371102
p348
aV201297050
p349
aV194623820
p350
aV173812949
p351
atp352
a(I12
(lp353
V194173070
p354
aV169266848
p355
aV202230212
p356
aV193683950
p357
aV200142691
p358
aV194066998
p359
aV166604164
p360
aV194582626
p361
aV200191060
p362
aV175717750
p363
aV203051186
p364
aV171047321
p365
aV201407566
p366
aV132518084
p367
aV196163438
p368
aV163988797
p369
aV190945715
p370
aV111053275
p371
aV173135070
p372
aV199639498
p373
aV16344709
p374
aV189580994
p375
aV197178252
p376
aV201587853
p377
aV175157191
p378
aV173340517
p379
aV152575798
p380
aV75764788
p381
aV201280920
p382
aV185483433
p383
atp384
a(I13
(lp385
V75764788
p386
aV201280920
p387
aV185483433
p388
aV160792179
p389
aV201906128
p390
aV201639294
p391
aV190529953
p392
aV195489832
p393
aV108442491
p394
aV10316240
p395
aV201299820
p396
aV197156038
p397
aV202216927
p398
aV199154488
p399
aV199317537
p400
aV176933758
p401
aV186833506
p402
aV198850025
p403
aV122888669
p404
aV194466321
p405
aV191485267
p406
aV26896061
p407
aV204021902
p408
aV196356364
p409
aV158039119
p410
aV147745517
p411
aV181524177
p412
aV201422726
p413
aV150313277
p414
aV138570892
p415
atp416
a(I14
(lp417
V195921714
p418
aV186521594
p419
aV187238265
p420
aV186235645
p421
aV128936383
p422
aV117701603
p423
aV181122246
p424
aV190783142
p425
aV124466790
p426
aV181523941
p427
aV176777363
p428
aV173512389
p429
aV175212561
p430
aV192610057
p431
aV195131625
p432
aV197055120
p433
aV195282945
p434
aV203441945
p435
aV188607651
p436
aV110856304
p437
aV181524822
p438
aV162736829
p439
aV177785545
p440
aV183591141
p441
aV197869332
p442
aV201898355
p443
aV194170758
p444
aV188616461
p445
aV192609575
p446
aV173511064
p447
atp448
a(I15
(lp449
V192609575
p450
aV173511064
p451
aV203880694
p452
aV181122556
p453
aV203597715
p454
aV195479575
p455
aV123858891
p456
aV199154449
p457
aV132859276
p458
aV68912554
p459
aV180659847
p460
aV198976278
p461
aV184123008
p462
aV196704903
p463
aV200892219
p464
aV194624413
p465
aV91038252
p466
aV110724212
p467
aV182266843
p468
aV167622886
p469
aV148479436
p470
aV171909312
p471
aV195627604
p472
aV203218786
p473
aV195523501
p474
aV180776135
p475
aV81959259
p476
aV187318424
p477
aV129381968
p478
aV182184274
p479
atp480
a(I16
(lp481
V110890423
p482
aV203262477
p483
aV162784192
p484
aV202222094
p485
aV123248527
p486
aV200208200
p487
aV162699936
p488
aV188411128
p489
aV199359103
p490
aV153420573
p491
aV203258358
p492
aV199346142
p493
aV202991030
p494
aV177440576
p495
aV170867126
p496
aV184853312
p497
aV202031747
p498
aV170905101
p499
aV108233389
p500
aV194176123
p501
aV170399750
p502
aV180776337
p503
aV103246385
p504
aV176978795
p505
aV191140734
p506
aV201297251
p507
aV165164864
p508
aV129157952
p509
aV173246624
p510
aV109165702
p511
atp512
a(I17
(lp513
V109165702
p514
aV105750051
p515
aV160791899
p516
aV162627222
p517
aV184041742
p518
aV182050379
p519
aV199702420
p520
aV203803619
p521
aV203636904
p522
aV176576982
p523
aV172623593
p524
aV131923352
p525
aV198654422
p526
aV193152390
p527
aV203865216
p528
aV194160207
p529
aV186082040
p530
aV187090721
p531
aV202080514
p532
aV153306012
p533
aV176903958
p534
aV193899093
p535
aV203395373
p536
aV195813384
p537
aV201422665
p538
aV143453405
p539
aV26684710
p540
aV196354446
p541
aV150221151
p542
aV148474663
p543
atp544
a(I18
(lp545
V156103330
p546
aV171758490
p547
aV181313165
p548
aV203393833
p549
aV200207171
p550
aV200192969
p551
aV126843810
p552
aV181843865
p553
aV199694901
p554
aV170173868
p555
aV115013635
p556
aV198165925
p557
aV185198593
p558
aV184495788
p559
aV186401136
p560
aV188591425
p561
aV181523127
p562
aV181315117
p563
aV189383485
p564
aV203950803
p565
aV160365114
p566
aV190628283
p567
aV198708719
p568
aV193881899
p569
aV125237587
p570
aV194370021
p571
aV191006673
p572
aV203300552
p573
aV192686171
p574
aV194748238
p575
atp576
a(I19
(lp577
V201585062
p578
aV188452471
p579
aV198622931
p580
aV190202054
p581
aV200192311
p582
aV201369871
p583
aV184535927
p584
aV201609476
p585
aV194611462
p586
aV123027350
p587
aV151792454
p588
aV115737000
p589
aV199237514
p590
aV127784674
p591
aV198292698
p592
aV198959203
p593
aV172012764
p594
aV194622993
p595
aV181203662
p596
aV194747469
p597
aV201336906
p598
aV163847033
p599
aV182786354
p600
aV200192146
p601
aV201243121
p602
aV164125915
p603
aV203342446
p604
aV141470205
p605
aV179888038
p606
aV150910197
p607
atp608
a(I20
(lp609
V138138757
p610
aV199416488
p611
aV162699848
p612
aV200191495
p613
aV202990763
p614
aV193919026
p615
aV153394964
p616
aV97632052
p617
aV122930178
p618
aV103251751
p619
aV68207821
p620
aV167794834
p621
aV124415643
p622
aV202548652
p623
aV200758774
p624
aV202902418
p625
aV147536758
p626
aV184510849
p627
aV171295125
p628
aV158656585
p629
aV183467400
p630
aV189170208
p631
aV180815422
p632
aV199703278
p633
aV202619155
p634
aV163265174
p635
aV186018097
p636
aV195524348
p637
aV195837850
p638
aV174280952
p639
atp640
a(I21
(lp641
V163202753
p642
aV179671035
p643
aV8018649
p644
aV172623608
p645
aV164220463
p646
aV185496799
p647
aV143359746
p648
aV160478937
p649
aV122073120
p650
aV193948951
p651
aV201609922
p652
aV164205344
p653
aV182925945
p654
aV162827397
p655
aV177324654
p656
aV194298920
p657
aV183505122
p658
aV130936485
p659
aV156962093
p660
aV201610245
p661
aV199730536
p662
aV148999063
p663
aV123734362
p664
aV164705944
p665
aV169781381
p666
aV128472895
p667
aV143360563
p668
aV67473512
p669
aV203179249
p670
aV192363154
p671
atp672
a(I22
(lp673
V173999447
p674
aV144532792
p675
aV201586439
p676
aV110850132
p677
aV168884902
p678
aV162158688
p679
aV199894937
p680
aV200294429
p681
aV163078491
p682
aV122627620
p683
aV199795381
p684
aV199527868
p685
aV200183375
p686
aV83414038
p687
aV180084311
p688
aV172632609
p689
aV203921575
p690
aV193211759
p691
aV191259424
p692
aV155293890
p693
aV204001986
p694
aV201618014
p695
aV201617455
p696
aV15846427
p697
aV202722429
p698
aV165680547
p699
aV195343146
p700
aV188511944
p701
aV187905089
p702
aV142370557
p703
atp704
a(I23
(lp705
V199595831
p706
aV196058132
p707
aV203802685
p708
aV109375080
p709
aV203998996
p710
aV203622871
p711
aV203801891
p712
aV134206219
p713
aV204007218
p714
aV201092820
p715
aV187768658
p716
aV201609740
p717
aV182267863
p718
aV167803818
p719
aV199393645
p720
aV201240049
p721
aV201544619
p722
aV201557158
p723
aV159610477
p724
aV81619135
p725
aV151150657
p726
aV202154761
p727
aV194806630
p728
aV155241217
p729
aV188480439
p730
aV202695961
p731
aV191438211
p732
aV179876857
p733
aV202031586
p734
aV202901737
p735
atp736
a(I24
(lp737
V202249822
p738
aV191742439
p739
aV196804409
p740
aV25010430
p741
aV183271381
p742
aV196128243
p743
aV149874023
p744
aV202224350
p745
aV154859049
p746
aV194529143
p747
aV177855283
p748
aV181524713
p749
aV152575291
p750
aV168362716
p751
aV201063993
p752
aV195548554
p753
aV175057009
p754
aV191773862
p755
aV189567044
p756
aV203940934
p757
aV35434951
p758
aV195715216
p759
aV157659883
p760
aV114515689
p761
aV203785981
p762
aV200191794
p763
aV147254827
p764
aV181523564
p765
aV189991238
p766
aV200662581
p767
atp768
a(I25
(lp769
V158466024
p770
aV187309230
p771
aV200403740
p772
aV149927764
p773
aV157872665
p774
aV81967706
p775
aV157596992
p776
aV175608594
p777
aV192814895
p778
aV148683128
p779
aV115010812
p780
aV187723585
p781
aV203299689
p782
aV158936352
p783
aV200511884
p784
aV199729887
p785
aV200190634
p786
aV178537774
p787
aV186963596
p788
aV202031474
p789
aV193816715
p790
aV187570710
p791
aV184348195
p792
aV183749567
p793
aV183633107
p794
aV176161324
p795
aV171023380
p796
aV125735522
p797
aV113282754
p798
aV41756590
p799
atp800
a(I26
(lp801
V41756590
p802
aV173976619
p803
aV204024638
p804
aV84439639
p805
aV181240815
p806
aV201557011
p807
aV202520806
p808
aV199610388
p809
aV199252413
p810
aV183329770
p811
aV174280746
p812
aV148829897
p813
aV145140255
p814
aV138024542
p815
aV129320151
p816
aV129217376
p817
aV114530085
p818
aV199255001
p819
aV187154100
p820
aV183521420
p821
aV182815258
p822
aV181867791
p823
aV158481454
p824
aV129321522
p825
aV125314101
p826
aV171745504
p827
aV120296465
p828
aV193061024
p829
aV185583877
p830
aV182715652
p831
atp832
a(I27
(lp833
V182521303
p834
aV174918019
p835
aV174603817
p836
aV165381563
p837
aV145883909
p838
aV135243237
p839
aV128980368
p840
aV185285828
p841
aV162589152
p842
aV193046468
p843
aV183558864
p844
aV183327832
p845
aV174282340
p846
aV166398298
p847
aV165374703
p848
aV154551305
p849
aV145138903
p850
aV125561112
p851
aV162770966
p852
aV103724641
p853
aV122969670
p854
aV204024610
p855
aV173514231
p856
aV165376285
p857
aV164738956
p858
aV145829443
p859
aV134045010
p860
aV129321004
p861
aV202447360
p862
aV197355329
p863
atp864
a(I28
(lp865
V173514231
p866
aV165376285
p867
aV164738956
p868
aV145829443
p869
aV134045010
p870
aV129321004
p871
aV202447360
p872
aV197355329
p873
aV193129822
p874
aV186023859
p875
aV183327051
p876
aV173984578
p877
aV168386299
p878
aV164738919
p879
aV164738748
p880
aV153689845
p881
aV125935681
p882
aV184349191
p883
aV182539961
p884
aV182532005
p885
aV177678789
p886
aV175886556
p887
aV164738495
p888
aV164737049
p889
aV138650232
p890
aV125935395
p891
aV22819380
p892
aV199369084
p893
aV198571912
p894
aV186169061
p895
atp896
a(I29
(lp897
V183573043
p898
aV182521581
p899
aV144380517
p900
aV135243706
p901
aV203642947
p902
aV202414821
p903
aV200258551
p904
aV195497490
p905
aV188063948
p906
aV183193340
p907
aV182532235
p908
aV176797487
p909
aV174097750
p910
aV160083931
p911
aV157820474
p912
aV155472020
p913
aV153923818
p914
aV145791388
p915
aV135592979
p916
aV200631577
p917
aV197932189
p918
aV197820651
p919
aV197059389
p920
aV196028647
p921
aV194058076
p922
aV183630173
p923
aV182523311
p924
aV154220694
p925
aV138468011
p926
aV138363373
p927
atp928
a(I30
(lp929
V194058076
p930
aV183630173
p931
aV182523311
p932
aV154220694
p933
aV138468011
p934
aV138363373
p935
aV135591939
p936
aV132801825
p937
aV202245478
p938
aV197509410
p939
aV197347078
p940
aV183593047
p941
aV153925295
p942
aV118617764
p943
aV22501253
p944
aV119230699
p945
aV200877027
p946
aV201946290
p947
aV185741010
p948
aV145737567
p949
aV137571283
p950
aV203727068
p951
aV115455926
p952
aV197550249
p953
aV197155057
p954
aV195781741
p955
aV185740509
p956
aV170196110
p957
aV157956931
p958
aV136665950
p959
atp960
a(I31
(lp961
V194048172
p962
aV160650810
p963
aV146873591
p964
aV199615061
p965
aV197144753
p966
aV196127938
p967
aV191889042
p968
aV180273458
p969
aV176841499
p970
aV137200640
p971
aV137081244
p972
aV198656496
p973
aV201279131
p974
aV171947719
p975
aV197770297
p976
aV187304657
p977
aV184548426
p978
aV182904698
p979
aV159439315
p980
aV138466685
p981
aV137081417
p982
aV131021252
p983
aV203798813
p984
aV200206882
p985
aV195805759
p986
aV198872428
p987
aV197513257
p988
aV197146144
p989
aV184405959
p990
aV183555304
p991
atp992
a(I32
(lp993
V131021252
p994
aV203798813
p995
aV200206882
p996
aV195805759
p997
aV198872428
p998
aV197513257
p999
aV197146144
p1000
aV184405959
p1001
aV183555304
p1002
aV181891185
p1003
aV170642336
p1004
aV157957872
p1005
aV137081751
p1006
aV136629022
p1007
aV196026084
p1008
aV192875566
p1009
aV188044028
p1010
aV186077426
p1011
aV184547255
p1012
aV182694595
p1013
aV160524945
p1014
aV136726350
p1015
aV134203967
p1016
aV204024487
p1017
aV203132100
p1018
aV198815253
p1019
aV192878328
p1020
aV182374831
p1021
aV169152476
p1022
aV168578283
p1023
atp1024
a(I33
(lp1025
V156120306
p1026
aV138070497
p1027
aV137591453
p1028
aV124732674
p1029
aV124343812
p1030
aV50662634
p1031
aV197512878
p1032
aV192798908
p1033
aV190878031
p1034
aV185735630
p1035
aV183327490
p1036
aV182715516
p1037
aV172112001
p1038
aV164822472
p1039
aV154936167
p1040
aV136557355
p1041
aV130798637
p1042
aV197762413
p1043
aV195410263
p1044
aV183557110
p1045
aV182520584
p1046
aV153924127
p1047
aV130760311
p1048
aV185604060
p1049
aV179820807
p1050
aV176842052
p1051
aV153921812
p1052
aV137448572
p1053
aV121003240
p1054
aV51698691
p1055
atp1056
a(I34
(lp1057
V153921812
p1058
aV137448572
p1059
aV121003240
p1060
aV51698691
p1061
aV199368276
p1062
aV193054718
p1063
aV175121613
p1064
aV172132952
p1065
aV169687337
p1066
aV169151440
p1067
aV168386521
p1068
aV156150252
p1069
aV153922336
p1070
aV137034361
p1071
aV197058768
p1072
aV196952835
p1073
aV192794447
p1074
aV183560199
p1075
aV182617316
p1076
aV166961684
p1077
aV159297125
p1078
aV153922847
p1079
aV124731342
p1080
aV189426161
p1081
aV204024438
p1082
aV196486017
p1083
aV192675764
p1084
aV186023274
p1085
aV183520778
p1086
aV176937738
p1087
atp1088
a(I35
(lp1089
V186023274
p1090
aV183520778
p1091
aV176937738
p1092
aV155764805
p1093
aV92169805
p1094
aV202029850
p1095
aV193057280
p1096
aV175844579
p1097
aV172354087
p1098
aV158967263
p1099
aV137035207
p1100
aV136627329
p1101
aV48024904
p1102
aV203912897
p1103
aV201620681
p1104
aV192686086
p1105
aV190959565
p1106
aV181897512
p1107
aV181893058
p1108
aV159298756
p1109
aV153923260
p1110
aV48027052
p1111
aV199521586
p1112
aV199363005
p1113
aV192893633
p1114
aV158172937
p1115
aV155760075
p1116
aV138364185
p1117
aV138343461
p1118
aV137033742
p1119
atp1120
a(I36
(lp1121
V48027052
p1122
aV199521586
p1123
aV199363005
p1124
aV192893633
p1125
aV158172937
p1126
aV155760075
p1127
aV138364185
p1128
aV138343461
p1129
aV137033742
p1130
aV114563431
p1131
aV17908067
p1132
aV203802166
p1133
aV147553682
p1134
aV199521631
p1135
aV197075767
p1136
aV196485249
p1137
aV192560090
p1138
aV184882154
p1139
aV184348656
p1140
aV183557558
p1141
aV183325233
p1142
aV174190114
p1143
aV171054775
p1144
aV154937275
p1145
aV138470974
p1146
aV130041632
p1147
aV50665204
p1148
aV203067431
p1149
aV182905649
p1150
aV182525866
p1151
atp1152
a(I37
(lp1153
V182525866
p1154
aV174362791
p1155
aV153926557
p1156
aV143942366
p1157
aV137601758
p1158
aV114428411
p1159
aV113307138
p1160
aV50662168
p1161
aV199521845
p1162
aV190779374
p1163
aV188832557
p1164
aV185130332
p1165
aV183331000
p1166
aV182525044
p1167
aV165543980
p1168
aV142733829
p1169
aV138341205
p1170
aV1102978
p1171
aV201741126
p1172
aV200185401
p1173
aV199519376
p1174
aV199338795
p1175
aV194338260
p1176
aV183328371
p1177
aV177851307
p1178
aV176858161
p1179
aV175609527
p1180
aV138069208
p1181
aV113370998
p1182
aV54949830
p1183
atp1184
a(I38
(lp1185
V183328371
p1186
aV177851307
p1187
aV176858161
p1188
aV175609527
p1189
aV138069208
p1190
aV113370998
p1191
aV54949830
p1192
aV204024388
p1193
aV203068272
p1194
aV200797486
p1195
aV193502387
p1196
aV182903336
p1197
aV182525442
p1198
aV180278167
p1199
aV174086283
p1200
aV136560097
p1201
aV27489535
p1202
aV197549153
p1203
aV196785138
p1204
aV193577468
p1205
aV188406979
p1206
aV182715331
p1207
aV182520058
p1208
aV182300586
p1209
aV174086242
p1210
aV163661347
p1211
aV153924429
p1212
aV202846210
p1213
aV202520682
p1214
aV186023723
p1215
atp1216
a(I39
(lp1217
V186023723
p1218
aV174660705
p1219
aV172624355
p1220
aV158355243
p1221
aV137974574
p1222
aV19126208
p1223
aV199175714
p1224
aV195692327
p1225
aV186079056
p1226
aV183329551
p1227
aV182302420
p1228
aV177191484
p1229
aV173870652
p1230
aV117268406
p1231
aV203929213
p1232
aV186023000
p1233
aV182524107
p1234
aV182302871
p1235
aV175787111
p1236
aV132661358
p1237
aV125338623
p1238
aV203534210
p1239
aV164354876
p1240
aV193722333
p1241
aV183750664
p1242
aV183750229
p1243
aV182812509
p1244
aV182332699
p1245
aV171623636
p1246
aV137555943
p1247
atp1248
a(I40
(lp1249
V183750229
p1250
aV182812509
p1251
aV182332699
p1252
aV171623636
p1253
aV137555943
p1254
aV94699036
p1255
aV67837221
p1256
aV197875419
p1257
aV170174581
p1258
aV203928478
p1259
aV193140630
p1260
aV187169375
p1261
aV182332086
p1262
aV173870358
p1263
aV138069884
p1264
aV136695681
p1265
aV127834272
p1266
aV110698160
p1267
aV83792376
p1268
aV27490226
p1269
aV27461024
p1270
aV203227378
p1271
aV203928143
p1272
aV193719584
p1273
aV192472467
p1274
aV192127414
p1275
aV173792793
p1276
aV153957081
p1277
aV145718975
p1278
aV129346746
p1279
atp1280
a(I41
(lp1281
V119033189
p1282
aV201170736
p1283
aV200589194
p1284
aV165033599
p1285
aV203926756
p1286
aV194574652
p1287
aV191095441
p1288
aV186203402
p1289
aV183358038
p1290
aV173868453
p1291
aV138361933
p1292
aV99683379
p1293
aV203926287
p1294
aV197060196
p1295
aV192550703
p1296
aV182617579
p1297
aV182537057
p1298
aV161942994
p1299
aV144978439
p1300
aV138467281
p1301
aV203925255
p1302
aV198471192
p1303
aV195693983
p1304
aV191093551
p1305
aV182535251
p1306
aV138342091
p1307
aV203924827
p1308
aV195915739
p1309
aV194566361
p1310
aV191091544
p1311
atp1312
a(I42
(lp1313
V182535251
p1314
aV138342091
p1315
aV203924827
p1316
aV195915739
p1317
aV194566361
p1318
aV191091544
p1319
aV186027194
p1320
aV183555496
p1321
aV165551113
p1322
aV164813397
p1323
aV157164899
p1324
aV146641921
p1325
aV139021408
p1326
aV137592579
p1327
aV30652593
p1328
aV203894185
p1329
aV199997937
p1330
aV185735861
p1331
aV54950646
p1332
aV203893550
p1333
aV191096334
p1334
aV187334493
p1335
aV182536133
p1336
aV170044803
p1337
aV145146509
p1338
aV54950383
p1339
aV197512281
p1340
aV195143182
p1341
aV192557136
p1342
aV187331759
p1343
atp1344
a(I43
(lp1345
V183583455
p1346
aV182618756
p1347
aV140361841
p1348
aV42763287
p1349
aV203893051
p1350
aV203892632
p1351
aV197882038
p1352
aV195921625
p1353
aV182537421
p1354
aV164510434
p1355
aV103250695
p1356
aV196781176
p1357
aV195984691
p1358
aV195301796
p1359
aV192968142
p1360
aV191092741
p1361
aV187565013
p1362
aV184573916
p1363
aV182528006
p1364
aV144917303
p1365
aV120773255
p1366
aV48403325
p1367
aV204024240
p1368
aV197817994
p1369
aV197544300
p1370
aV197023204
p1371
aV179734102
p1372
aV144658006
p1373
aV130045590
p1374
aV197329930
p1375
atp1376
a(I44
(lp1377
V204024240
p1378
aV197817994
p1379
aV197544300
p1380
aV197023204
p1381
aV179734102
p1382
aV144658006
p1383
aV130045590
p1384
aV197329930
p1385
aV202080351
p1386
aV188263728
p1387
aV188158898
p1388
aV42763531
p1389
aV202066392
p1390
aV158684066
p1391
aV187322399
p1392
aV203388105
p1393
aV181206692
p1394
aV197505821
p1395
aV192467659
p1396
aV186685928
p1397
aV146647359
p1398
aV65327301
p1399
aV38484625
p1400
aV18160861
p1401
aV186685822
p1402
aV153949154
p1403
aV99260825
p1404
aV154963438
p1405
aV31281441
p1406
aV19126031
p1407
atp1408
a(I45
(lp1409
V187755311
p1410
aV144985551
p1411
aV27913623
p1412
aV195780782
p1413
aV185744764
p1414
aV184460709
p1415
aV181014937
p1416
aV155064554
p1417
aV56903599
p1418
aV202273398
p1419
aV175256971
p1420
aV164822606
p1421
aV139532007
p1422
aV191133834
p1423
aV181878442
p1424
aV186858171
p1425
aV119033758
p1426
aV97518114
p1427
aV197195951
p1428
aV183306447
p1429
aV145787345
p1430
aV27490281
p1431
aV204024120
p1432
aV199285593
p1433
aV197060043
p1434
aV187266688
p1435
aV167541711
p1436
aV162972997
p1437
aV65239912
p1438
aV38486135
p1439
atp1440
a(I46
(lp1441
V167541711
p1442
aV162972997
p1443
aV65239912
p1444
aV38486135
p1445
aV193200856
p1446
aV134565935
p1447
aV62605492
p1448
aV30499483
p1449
aV22084826
p1450
aV172583519
p1451
aV112862044
p1452
aV202432209
p1453
aV198620013
p1454
aV197193179
p1455
aV189200928
p1456
aV187006357
p1457
aV186858694
p1458
aV184677278
p1459
aV119050890
p1460
aV63007441
p1461
aV62604694
p1462
aV202661483
p1463
aV197899973
p1464
aV197394035
p1465
aV185152456
p1466
aV184962183
p1467
aV176996966
p1468
aV176422519
p1469
aV173092354
p1470
aV164544343
p1471
atp1472
a(I47
(lp1473
V155326468
p1474
aV151284861
p1475
aV145829130
p1476
aV62900959
p1477
aV155297470
p1478
aV197391192
p1479
aV188706180
p1480
aV184960572
p1481
aV182253522
p1482
aV163452238
p1483
aV152029012
p1484
aV130751078
p1485
aV194564814
p1486
aV184857174
p1487
aV168958180
p1488
aV21594873
p1489
aV204024071
p1490
aV203264072
p1491
aV198888102
p1492
aV197363387
p1493
aV194564164
p1494
aV145824305
p1495
aV198038101
p1496
aV197912319
p1497
aV195511692
p1498
aV194585956
p1499
aV193200524
p1500
aV188526885
p1501
aV183304111
p1502
aV181527555
p1503
atp1504
a(I48
(lp1505
V198038101
p1506
aV197912319
p1507
aV195511692
p1508
aV194585956
p1509
aV193200524
p1510
aV188526885
p1511
aV183304111
p1512
aV181527555
p1513
aV153934102
p1514
aV129785984
p1515
aV195529621
p1516
aV194145510
p1517
aV191564126
p1518
aV82382696
p1519
aV196623898
p1520
aV196487971
p1521
aV195533221
p1522
aV195513801
p1523
aV194143936
p1524
aV192480380
p1525
aV107459764
p1526
aV197664332
p1527
aV197113945
p1528
aV192332144
p1529
aV174586360
p1530
aV187006109
p1531
aV186858291
p1532
aV140590717
p1533
aV187006496
p1534
aV181526933
p1535
atp1536
a(I49
(lp1537
V177711456
p1538
aV143950569
p1539
aV197194425
p1540
aV189599293
p1541
aV190483991
p1542
aV187466185
p1543
aV186858503
p1544
aV137081923
p1545
aV132998102
p1546
aV110262231
p1547
aV41731838
p1548
aV15481666
p1549
aV142751615
p1550
aV203445241
p1551
aV199478718
p1552
aV192934190
p1553
aV186858887
p1554
aV174794341
p1555
aV164820250
p1556
aV140208218
p1557
aV203833985
p1558
aV197205335
p1559
aV174038804
p1560
aV158541268
p1561
aV202782450
p1562
aV201331896
p1563
aV189543275
p1564
aV201336830
p1565
aV201332416
p1566
aV191426810
p1567
atp1568
a(I50
(lp1569
V131053075
p1570
aV202416579
p1571
aV201218855
p1572
aV197088670
p1573
aV195233863
p1574
aV191512419
p1575
aV191373281
p1576
aV164658365
p1577
aV78341572
p1578
aV204023946
p1579
aV201229102
p1580
aV199595263
p1581
aV197655213
p1582
aV166226571
p1583
aV158881061
p1584
aV151152685
p1585
aV145836288
p1586
aV201229460
p1587
aV201229031
p1588
aV194925535
p1589
aV174679105
p1590
aV204023929
p1591
aV201746396
p1592
aV197510143
p1593
aV196912216
p1594
aV186812347
p1595
aV154147334
p1596
aV109004959
p1597
aV200566855
p1598
aV197187076
p1599
atp1600
a(I51
(lp1601
V186812347
p1602
aV154147334
p1603
aV109004959
p1604
aV200566855
p1605
aV197187076
p1606
aV190397499
p1607
aV155120831
p1608
aV195587603
p1609
aV189749941
p1610
aV190490118
p1611
aV202338109
p1612
aV195918416
p1613
aV169097612
p1614
aV161716703
p1615
aV156536836
p1616
aV6031231
p1617
aV188954552
p1618
aV194162366
p1619
aV202127428
p1620
aV199453360
p1621
aV179174702
p1622
aV100633076
p1623
aV200770136
p1624
aV200056314
p1625
aV179173861
p1626
aV156161992
p1627
aV121143468
p1628
aV197894144
p1629
aV170481873
p1630
aV120925311
p1631
atp1632
a(I52
(lp1633
V199321820
p1634
aV197517011
p1635
aV156536057
p1636
aV203371513
p1637
aV199102970
p1638
aV197697381
p1639
aV165318612
p1640
aV141149313
p1641
aV122556628
p1642
aV121420341
p1643
aV201980757
p1644
aV172798167
p1645
aV150504748
p1646
aV81270298
p1647
aV185252587
p1648
aV120819180
p1649
aV199338868
p1650
aV149448998
p1651
aV203834314
p1652
aV202796366
p1653
aV199387872
p1654
aV187407400
p1655
aV172595396
p1656
aV80999678
p1657
aV200640394
p1658
aV195764141
p1659
aV190032525
p1660
aV187615762
p1661
aV179551236
p1662
aV167786360
p1663
atp1664
a(I53
(lp1665
V187615762
p1666
aV179551236
p1667
aV167786360
p1668
aV165753408
p1669
aV106796325
p1670
aV157758445
p1671
aV190225356
p1672
aV186811915
p1673
aV169004993
p1674
aV123711678
p1675
aV104086587
p1676
aV150221624
p1677
aV190639217
p1678
aV201451896
p1679
aV201069333
p1680
aV192414413
p1681
aV175381166
p1682
aV171099446
p1683
aV203238441
p1684
aV187071038
p1685
aV105868713
p1686
aV203331935
p1687
aV179480046
p1688
aV179326613
p1689
aV119830300
p1690
aV203331468
p1691
aV199525136
p1692
aV186268441
p1693
aV174156290
p1694
aV123745741
p1695
atp1696
a(I54
(lp1697
V123745741
p1698
aV69531
p1699
aV200846834
p1700
aV198391956
p1701
aV157139953
p1702
aV123937076
p1703
aV41000595
p1704
aV203323677
p1705
aV172832714
p1706
aV164744925
p1707
aV66167008
p1708
aV201247540
p1709
aV199038452
p1710
aV198303656
p1711
aV178245221
p1712
aV153316850
p1713
aV71431523
p1714
aV43197010
p1715
aV199797838
p1716
aV190896673
p1717
aV172044544
p1718
aV151515310
p1719
aV111715218
p1720
aV41103584
p1721
aV198198899
p1722
aV202700521
p1723
aV188253206
p1724
aV78880014
p1725
aV54853685
p1726
aV201090252
p1727
atp1728
a(I55
(lp1729
V78880014
p1730
aV54853685
p1731
aV201090252
p1732
aV181389880
p1733
aV161413722
p1734
aV145784788
p1735
aV145224910
p1736
aV54507101
p1737
aV202052243
p1738
aV199322585
p1739
aV199034192
p1740
aV185023833
p1741
aV178601489
p1742
aV163650668
p1743
aV161411690
p1744
aV157489301
p1745
aV131221766
p1746
aV55268531
p1747
aV42900065
p1748
aV202825795
p1749
aV198384093
p1750
aV197193122
p1751
aV193375321
p1752
aV120818045
p1753
aV204023730
p1754
aV169082544
p1755
aV200919416
p1756
aV185681570
p1757
aV185412591
p1758
aV176478247
p1759
atp1760
a(I56
(lp1761
V120925190
p1762
aV203652333
p1763
aV201091454
p1764
aV199594535
p1765
aV198385650
p1766
aV186440572
p1767
aV182794053
p1768
aV182247013
p1769
aV107613586
p1770
aV198723886
p1771
aV203690857
p1772
aV199038984
p1773
aV194282265
p1774
aV194119079
p1775
aV176211033
p1776
aV120635471
p1777
aV110540569
p1778
aV151762546
p1779
aV199480389
p1780
aV197930663
p1781
aV196573060
p1782
aV171793815
p1783
aV128198093
p1784
aV104936747
p1785
aV193677978
p1786
aV168227490
p1787
aV201452234
p1788
aV197932213
p1789
aV193484084
p1790
aV176598334
p1791
atp1792
a(I57
(lp1793
V201452234
p1794
aV197932213
p1795
aV193484084
p1796
aV176598334
p1797
aV176153189
p1798
aV172982766
p1799
aV87027445
p1800
aV78342660
p1801
aV203371594
p1802
aV203196654
p1803
aV199042602
p1804
aV198083353
p1805
aV195856421
p1806
aV164835984
p1807
aV160771019
p1808
aV78342953
p1809
aV151955134
p1810
aV197679488
p1811
aV196268537
p1812
aV195856887
p1813
aV155300900
p1814
aV204023663
p1815
aV105900037
p1816
aV204023658
p1817
aV194664757
p1818
aV190404176
p1819
aV149900330
p1820
aV158715902
p1821
aV188298371
p1822
aV203489956
p1823
atp1824
a(I58
(lp1825
V201371424
p1826
aV199033346
p1827
aV198711001
p1828
aV197669039
p1829
aV186232140
p1830
aV174347226
p1831
aV172755289
p1832
aV202868010
p1833
aV194283878
p1834
aV169548182
p1835
aV145798327
p1836
aV114000321
p1837
aV203424181
p1838
aV188647189
p1839
aV188621140
p1840
aV188371488
p1841
aV186713589
p1842
aV136761094
p1843
aV126317380
p1844
aV114001514
p1845
aV92383816
p1846
aV157592350
p1847
aV204023627
p1848
aV203435808
p1849
aV199206568
p1850
aV197092208
p1851
aV194297670
p1852
aV178033354
p1853
aV162711371
p1854
aV135060648
p1855
atp1856
a(I59
(lp1857
V197092208
p1858
aV194297670
p1859
aV178033354
p1860
aV162711371
p1861
aV135060648
p1862
aV203046319
p1863
aV202230893
p1864
aV188414906
p1865
aV178035313
p1866
aV170669701
p1867
aV155536732
p1868
aV136762203
p1869
aV202146768
p1870
aV200679089
p1871
aV200488526
p1872
aV197929365
p1873
aV188371649
p1874
aV186843544
p1875
aV165130969
p1876
aV159644400
p1877
aV114001667
p1878
aV96242414
p1879
aV202531533
p1880
aV201041149
p1881
aV197423155
p1882
aV189993171
p1883
aV174653983
p1884
aV169563171
p1885
aV164219998
p1886
aV163085785
p1887
atp1888
a(I60
(lp1889
V164219998
p1890
aV163085785
p1891
aV155298630
p1892
aV130649423
p1893
aV89816089
p1894
aV203733277
p1895
aV203169644
p1896
aV201879261
p1897
aV200459108
p1898
aV199032733
p1899
aV198275733
p1900
aV197547413
p1901
aV182634155
p1902
aV178437659
p1903
aV174489341
p1904
aV155843634
p1905
aV139871084
p1906
aV203606818
p1907
aV201507208
p1908
aV197378009
p1909
aV187254249
p1910
aV173412432
p1911
aV155295684
p1912
aV74220660
p1913
aV36543221
p1914
aV23381151
p1915
aV203764583
p1916
aV200573042
p1917
aV197544074
p1918
aV195045621
p1919
atp1920
a(I61
(lp1921
V155295684
p1922
aV74220660
p1923
aV36543221
p1924
aV23381151
p1925
aV203764583
p1926
aV200573042
p1927
aV197544074
p1928
aV195045621
p1929
aV185494363
p1930
aV176951843
p1931
aV176565139
p1932
aV167511241
p1933
aV92112473
p1934
aV188415570
p1935
aV184321112
p1936
aV182815751
p1937
aV179357893
p1938
aV174021354
p1939
aV155839174
p1940
aV111907234
p1941
aV204023566
p1942
aV202046838
p1943
aV197430652
p1944
aV190594819
p1945
aV188729979
p1946
aV174991982
p1947
aV169791001
p1948
aV167511928
p1949
aV156243567
p1950
aV155300283
p1951
atp1952
a(I62
(lp1953
V155300283
p1954
aV117763151
p1955
aV102924942
p1956
aV82085728
p1957
aV190241882
p1958
aV188394855
p1959
aV143816759
p1960
aV129974325
p1961
aV158187619
p1962
aV96410449
p1963
aV203917785
p1964
aV191755327
p1965
aV185490460
p1966
aV155443876
p1967
aV146205100
p1968
aV129974652
p1969
aV113266836
p1970
aV203799383
p1971
aV189411956
p1972
aV193387276
p1973
aV197402656
p1974
aV192362559
p1975
aV155844403
p1976
aV154979950
p1977
aV130187779
p1978
aV203823160
p1979
aV201376354
p1980
aV197765901
p1981
aV186282830
p1982
aV175620738
p1983
atp1984
a(I63
(lp1985
V155844403
p1986
aV154979950
p1987
aV130187779
p1988
aV203823160
p1989
aV201376354
p1990
aV197765901
p1991
aV186282830
p1992
aV175620738
p1993
aV145819602
p1994
aV137028594
p1995
aV130188992
p1996
aV114513696
p1997
aV194110138
p1998
aV190711960
p1999
aV190700426
p2000
aV155484673
p2001
aV130920758
p2002
aV204023515
p2003
aV190704156
p2004
aV189311826
p2005
aV188938309
p2006
aV185681226
p2007
aV165287688
p2008
aV155854287
p2009
aV196581500
p2010
aV194383915
p2011
aV191756139
p2012
aV165289075
p2013
aV155508127
p2014
aV123010111
p2015
atp2016
a(I64
(lp2017
V189311826
p2018
aV188938309
p2019
aV185681226
p2020
aV165287688
p2021
aV155854287
p2022
aV196581500
p2023
aV194383915
p2024
aV191756139
p2025
aV165289075
p2026
aV155508127
p2027
aV123010111
p2028
aV203730312
p2029
aV189277310
p2030
aV184383532
p2031
aV166942923
p2032
aV165288188
p2033
aV195456556
p2034
aV185386976
p2035
aV184838022
p2036
aV172385387
p2037
aV116109311
p2038
aV203658669
p2039
aV202862811
p2040
aV197632804
p2041
aV197599307
p2042
aV189943342
p2043
aV181319074
p2044
aV43944634
p2045
aV196785543
p2046
aV191165155
p2047
atp2048
a(I65
(lp2049
V180706374
p2050
aV160260115
p2051
aV145784223
p2052
aV48502798
p2053
aV197665219
p2054
aV194166156
p2055
aV192033900
p2056
aV191675143
p2057
aV187613668
p2058
aV185631876
p2059
aV170934002
p2060
aV157718777
p2061
aV16542298
p2062
aV156101994
p2063
aV183438582
p2064
aV203729986
p2065
aV199815405
p2066
aV191234424
p2067
aV188137238
p2068
aV170934263
p2069
aV163076920
p2070
aV158583560
p2071
aV116131112
p2072
aV88513268
p2073
aV45214286
p2074
aV204023455
p2075
aV200483764
p2076
aV199815904
p2077
aV196610878
p2078
aV195652299
p2079
atp2080
a(I66
(lp2081
V200483764
p2082
aV199815904
p2083
aV196610878
p2084
aV195652299
p2085
aV193732511
p2086
aV188938725
p2087
aV149003799
p2088
aV195758430
p2089
aV197833651
p2090
aV192869686
p2091
aV189775938
p2092
aV145822770
p2093
aV101023810
p2094
aV201485776
p2095
aV199323127
p2096
aV189825954
p2097
aV184535354
p2098
aV138583594
p2099
aV129072555
p2100
aV117782213
p2101
aV203729523
p2102
aV201482785
p2103
aV191205082
p2104
aV150435905
p2105
aV138021919
p2106
aV129541215
p2107
aV198295855
p2108
aV195340159
p2109
aV193756268
p2110
aV193237622
p2111
atp2112
a(I67
(lp2113
V164820598
p2114
aV201715436
p2115
aV193237581
p2116
aV180051131
p2117
aV169613701
p2118
aV155546903
p2119
aV203878777
p2120
aV203338586
p2121
aV196978835
p2122
aV194296362
p2123
aV192698727
p2124
aV175788764
p2125
aV165424878
p2126
aV141133826
p2127
aV189677740
p2128
aV175614015
p2129
aV203729184
p2130
aV184842280
p2131
aV173245037
p2132
aV204023379
p2133
aV192780600
p2134
aV192690330
p2135
aV176492371
p2136
aV175994241
p2137
aV174583458
p2138
aV171102061
p2139
aV138951304
p2140
aV118641234
p2141
aV117818382
p2142
aV184855931
p2143
atp2144
a(I68
(lp2145
V138951304
p2146
aV118641234
p2147
aV117818382
p2148
aV184855931
p2149
aV181525183
p2150
aV198132250
p2151
aV195339925
p2152
aV187636136
p2153
aV179278390
p2154
aV176148421
p2155
aV175527871
p2156
aV153624473
p2157
aV149828925
p2158
aV117815566
p2159
aV2525247
p2160
aV195809429
p2161
aV191706227
p2162
aV191540637
p2163
aV176636373
p2164
aV164342725
p2165
aV143257217
p2166
aV117814185
p2167
aV191618832
p2168
aV197628774
p2169
aV195430065
p2170
aV191335777
p2171
aV190430459
p2172
aV181970957
p2173
aV175615948
p2174
aV164325487
p2175
atp2176
a(I69
(lp2177
V158202864
p2178
aV119170906
p2179
aV80639831
p2180
aV200588210
p2181
aV203892017
p2182
aV190793086
p2183
aV188812140
p2184
aV188306162
p2185
aV187639448
p2186
aV175614626
p2187
aV164286624
p2188
aV203403759
p2189
aV183431258
p2190
aV203728771
p2191
aV203891600
p2192
aV193483853
p2193
aV190062749
p2194
aV188482457
p2195
aV187637923
p2196
aV164441361
p2197
aV164241075
p2198
aV154189200
p2199
aV153625601
p2200
aV202648631
p2201
aV195774347
p2202
aV195641891
p2203
aV193733431
p2204
aV193483344
p2205
aV188119405
p2206
aV177477360
p2207
atp2208
a(I70
(lp2209
V202648631
p2210
aV195774347
p2211
aV195641891
p2212
aV193733431
p2213
aV193483344
p2214
aV188119405
p2215
aV177477360
p2216
aV161476459
p2217
aV111718805
p2218
aV202647913
p2219
aV202647050
p2220
aV202421877
p2221
aV189040079
p2222
aV189000111
p2223
aV186571291
p2224
aV174035109
p2225
aV162841825
p2226
aV118837995
p2227
aV117584585
p2228
aV37938357
p2229
aV203930183
p2230
aV202649278
p2231
aV202648139
p2232
aV202646824
p2233
aV194929598
p2234
aV178509423
p2235
aV178418346
p2236
aV172285355
p2237
aV167289009
p2238
aV166091995
p2239
atp2240
a(I71
(lp2241
V203728605
p2242
aV202648044
p2243
aV195047921
p2244
aV193053866
p2245
aV177898789
p2246
aV174460192
p2247
aV173090238
p2248
aV172440459
p2249
aV158021620
p2250
aV189543569
p2251
aV200826604
p2252
aV193709344
p2253
aV192585220
p2254
aV180443373
p2255
aV178791939
p2256
aV173967299
p2257
aV166726130
p2258
aV166078068
p2259
aV143397814
p2260
aV193058236
p2261
aV190194470
p2262
aV180271869
p2263
aV170032596
p2264
aV203891138
p2265
aV203890596
p2266
aV202072486
p2267
aV202072253
p2268
aV197503310
p2269
aV187316683
p2270
aV167145757
p2271
atp2272
a(I72
(lp2273
V197503310
p2274
aV187316683
p2275
aV167145757
p2276
aV165514772
p2277
aV161971533
p2278
aV110017486
p2279
aV25444570
p2280
aV204023270
p2281
aV198238547
p2282
aV200823471
p2283
aV203727400
p2284
aV203889675
p2285
aV202072633
p2286
aV202071953
p2287
aV191489178
p2288
aV184541977
p2289
aV179601343
p2290
aV172693843
p2291
aV172412274
p2292
aV168547565
p2293
aV156714078
p2294
aV150307991
p2295
aV90309875
p2296
aV200542471
p2297
aV203889332
p2298
aV203148182
p2299
aV202855473
p2300
aV199400620
p2301
aV193722797
p2302
aV188811045
p2303
atp2304
a(I73
(lp2305
V188809007
p2306
aV180527108
p2307
aV178952716
p2308
aV136246591
p2309
aV202010390
p2310
aV147654183
p2311
aV197808714
p2312
aV188986644
p2313
aV185995253
p2314
aV172437072
p2315
aV171541323
p2316
aV143003844
p2317
aV186393738
p2318
aV184880070
p2319
aV152121526
p2320
aV201940932
p2321
aV196231427
p2322
aV190248451
p2323
aV189967120
p2324
aV161525740
p2325
aV151764885
p2326
aV110150375
p2327
aV106862777
p2328
aV89575182
p2329
aV89534651
p2330
aV197054274
p2331
aV196779429
p2332
aV193789707
p2333
aV193225112
p2334
aV191669486
p2335
atp2336
a(I74
(lp2337
V89534651
p2338
aV197054274
p2339
aV196779429
p2340
aV193789707
p2341
aV193225112
p2342
aV191669486
p2343
aV188384108
p2344
aV187639235
p2345
aV174079171
p2346
aV128919023
p2347
aV98430252
p2348
aV203726392
p2349
aV203804493
p2350
aV201639880
p2351
aV193759228
p2352
aV180470428
p2353
aV174678016
p2354
aV164238293
p2355
aV152657479
p2356
aV202987938
p2357
aV194287813
p2358
aV167937277
p2359
aV164822538
p2360
aV156238096
p2361
aV146205816
p2362
aV112955173
p2363
aV203496635
p2364
aV202078412
p2365
aV194974988
p2366
aV194445518
p2367
atp2368
a(I75
(lp2369
V202078224
p2370
aV196253486
p2371
aV191687270
p2372
aV153637662
p2373
aV146207963
p2374
aV100617556
p2375
aV186660935
p2376
aV200675877
p2377
aV197693662
p2378
aV160306819
p2379
aV149628977
p2380
aV142384608
p2381
aV115107055
p2382
aV197848371
p2383
aV195793115
p2384
aV195341226
p2385
aV195340867
p2386
aV188486515
p2387
aV183000201
p2388
aV134389242
p2389
aV195497916
p2390
aV187452980
p2391
aV179453985
p2392
aV152273554
p2393
aV151550804
p2394
aV146206736
p2395
aV100666882
p2396
aV201468581
p2397
aV195343429
p2398
aV181440267
p2399
atp2400
a(I76
(lp2401
V201468581
p2402
aV195343429
p2403
aV181440267
p2404
aV154799262
p2405
aV70705580
p2406
aV204023179
p2407
aV203178408
p2408
aV176743151
p2409
aV191485432
p2410
aV188812167
p2411
aV187207716
p2412
aV185328779
p2413
aV160365761
p2414
aV160050559
p2415
aV120889426
p2416
aV72423588
p2417
aV25442514
p2418
aV5058653
p2419
aV194423250
p2420
aV194284355
p2421
aV184403985
p2422
aV182836385
p2423
aV162625920
p2424
aV193576283
p2425
aV203837420
p2426
aV203226611
p2427
aV193758193
p2428
aV184534882
p2429
aV183764736
p2430
aV160320812
p2431
atp2432
a(I77
(lp2433
V91739591
p2434
aV134962561
p2435
aV203226818
p2436
aV193734146
p2437
aV184535123
p2438
aV138170722
p2439
aV192886469
p2440
aV189947859
p2441
aV183334888
p2442
aV138082491
p2443
aV137838663
p2444
aV134179734
p2445
aV128919844
p2446
aV193757335
p2447
aV192353825
p2448
aV178889450
p2449
aV108304280
p2450
aV195339644
p2451
aV189829033
p2452
aV179192518
p2453
aV161163451
p2454
aV145803705
p2455
aV108304277
p2456
aV192695838
p2457
aV183042546
p2458
aV171832503
p2459
aV169975712
p2460
aV150362535
p2461
aV115856602
p2462
aV191205699
p2463
atp2464
a(I78
(lp2465
V171832503
p2466
aV169975712
p2467
aV150362535
p2468
aV115856602
p2469
aV191205699
p2470
aV189929091
p2471
aV166526840
p2472
aV138171371
p2473
aV197010578
p2474
aV176503905
p2475
aV154264850
p2476
aV144855534
p2477
aV142156323
p2478
aV139799865
p2479
aV196349186
p2480
aV189336591
p2481
aV189336458
p2482
aV169177919
p2483
aV154630748
p2484
aV145805692
p2485
aV119118774
p2486
aV111136664
p2487
aV202424641
p2488
aV193189717
p2489
aV164248258
p2490
aV134972239
p2491
aV124802771
p2492
aV119119410
p2493
aV202865541
p2494
aV202423165
p2495
atp2496
a(I79
(lp2497
V154285023
p2498
aV145810173
p2499
aV113706848
p2500
aV85785122
p2501
aV202885531
p2502
aV201586948
p2503
aV200797338
p2504
aV198767258
p2505
aV188396165
p2506
aV185677005
p2507
aV113057769
p2508
aV155297178
p2509
aV155295749
p2510
aV194172768
p2511
aV202219630
p2512
aV200510975
p2513
aV198836689
p2514
aV187611383
p2515
aV162698908
p2516
aV200797788
p2517
aV200510567
p2518
aV198737833
p2519
aV198296093
p2520
aV197810416
p2521
aV202244664
p2522
aV201282195
p2523
aV193383032
p2524
aV186804685
p2525
aV154637163
p2526
aV184376701
p2527
atp2528
a(I80
(lp2529
V198296093
p2530
aV197810416
p2531
aV202244664
p2532
aV201282195
p2533
aV193383032
p2534
aV186804685
p2535
aV154637163
p2536
aV184376701
p2537
aV192979742
p2538
aV188542735
p2539
aV184574417
p2540
aV90237773
p2541
aV86601315
p2542
aV204023024
p2543
aV193518285
p2544
aV184572311
p2545
aV115890774
p2546
aV86209917
p2547
aV197803707
p2548
aV195814340
p2549
aV190359392
p2550
aV187169953
p2551
aV179734746
p2552
aV163515287
p2553
aV72017997
p2554
aV178347114
p2555
aV117142709
p2556
aV115927393
p2557
aV95983799
p2558
aV138448144
p2559
atp2560
a(I81
(lp2561
V96174715
p2562
aV194947404
p2563
aV145788303
p2564
aV103653241
p2565
aV202730117
p2566
aV199878233
p2567
aV195406892
p2568
aV193050650
p2569
aV158832034
p2570
aV203136523
p2571
aV196986354
p2572
aV165542790
p2573
aV116471058
p2574
aV181981870
p2575
aV182168764
p2576
aV101082921
p2577
aV202875699
p2578
aV200996002
p2579
aV198238559
p2580
aV196986659
p2581
aV181875519
p2582
aV158437622
p2583
aV145798400
p2584
aV204022969
p2585
aV193051202
p2586
aV173241320
p2587
aV137492215
p2588
aV202875381
p2589
aV197031129
p2590
aV193050753
p2591
atp2592
a(I82
(lp2593
V193051202
p2594
aV173241320
p2595
aV137492215
p2596
aV202875381
p2597
aV197031129
p2598
aV193050753
p2599
aV116851421
p2600
aV116816368
p2601
aV193050979
p2602
aV164109235
p2603
aV123184622
p2604
aV117015557
p2605
aV200463811
p2606
aV193382908
p2607
aV179477633
p2608
aV169415375
p2609
aV164418719
p2610
aV160318316
p2611
aV117014931
p2612
aV198126993
p2613
aV193470357
p2614
aV190489970
p2615
aV158845544
p2616
aV201162376
p2617
aV199448487
p2618
aV193051092
p2619
aV190491751
p2620
aV183751553
p2621
aV165542983
p2622
aV150674944
p2623
atp2624
a(I83
(lp2625
V204022915
p2626
aV202131932
p2627
aV193050846
p2628
aV190490207
p2629
aV189583739
p2630
aV183080415
p2631
aV180249539
p2632
aV151393688
p2633
aV145797921
p2634
aV117901959
p2635
aV203406562
p2636
aV190490395
p2637
aV186168839
p2638
aV183751782
p2639
aV199208738
p2640
aV183592779
p2641
aV182908248
p2642
aV182520712
p2643
aV152607169
p2644
aV185076731
p2645
aV193051313
p2646
aV183555166
p2647
aV182528793
p2648
aV175665043
p2649
aV141806796
p2650
aV116839384
p2651
aV119016168
p2652
aV204022876
p2653
aV201455685
p2654
aV193051422
p2655
atp2656
a(I84
(lp2657
V152607169
p2658
aV185076731
p2659
aV193051313
p2660
aV183555166
p2661
aV182528793
p2662
aV175665043
p2663
aV141806796
p2664
aV116839384
p2665
aV119016168
p2666
aV204022876
p2667
aV201455685
p2668
aV193051422
p2669
aV191421842
p2670
aV190499089
p2671
aV119911157
p2672
aV202102651
p2673
aV181324811
p2674
aV198096472
p2675
aV201456229
p2676
aV193050591
p2677
aV183190123
p2678
aV182536570
p2679
aV197442709
p2680
aV123321095
p2681
aV195995713
p2682
aV190492531
p2683
aV140676010
p2684
aV139627966
p2685
aV198193228
p2686
aV198150935
p2687
atp2688
a(I85
(lp2689
V183192819
p2690
aV139020733
p2691
aV137508545
p2692
aV119946880
p2693
aV201734770
p2694
aV195995598
p2695
aV182715212
p2696
aV200651582
p2697
aV200516453
p2698
aV190118436
p2699
aV187040151
p2700
aV185737507
p2701
aV184970003
p2702
aV160574625
p2703
aV201735023
p2704
aV196865455
p2705
aV182321999
p2706
aV121205557
p2707
aV116066801
p2708
aV195818839
p2709
aV183632382
p2710
aV154094584
p2711
aV149864260
p2712
aV115543005
p2713
aV183559782
p2714
aV183107925
p2715
aV160148238
p2716
aV182522736
p2717
aV182521172
p2718
aV176185772
p2719
atp2720
a(I86
(lp2721
V115543005
p2722
aV183559782
p2723
aV183107925
p2724
aV160148238
p2725
aV182522736
p2726
aV182521172
p2727
aV176185772
p2728
aV183585542
p2729
aV183109196
p2730
aV182697448
p2731
aV204022783
p2732
aV181354262
p2733
aV201380177
p2734
aV184319101
p2735
aV183927708
p2736
aV182538735
p2737
aV174457354
p2738
aV201512310
p2739
aV191715804
p2740
aV173861330
p2741
aV171371464
p2742
aV41889544
p2743
aV186518798
p2744
aV183329970
p2745
aV183270299
p2746
aV182906137
p2747
aV157025535
p2748
aV202031135
p2749
aV202031969
p2750
aV155957163
p2751
atp2752
a(I87
(lp2753
V155957163
p2754
aV183909398
p2755
aV183595339
p2756
aV182695361
p2757
aV166534335
p2758
aV201099627
p2759
aV200697454
p2760
aV183186863
p2761
aV167502282
p2762
aV157082968
p2763
aV111277805
p2764
aV204022753
p2765
aV204022749
p2766
aV198570349
p2767
aV197354410
p2768
aV182524826
p2769
aV182520258
p2770
aV176666404
p2771
aV164823507
p2772
aV108572202
p2773
aV99347518
p2774
aV204022746
p2775
aV204022739
p2776
aV200778182
p2777
aV182539576
p2778
aV182520915
p2779
aV180587284
p2780
aV177195528
p2781
aV177137284
p2782
aV163339260
p2783
atp2784
a(I88
(lp2785
V176666404
p2786
aV164823507
p2787
aV108572202
p2788
aV99347518
p2789
aV204022746
p2790
aV204022739
p2791
aV200778182
p2792
aV182539576
p2793
aV182520915
p2794
aV180587284
p2795
aV177195528
p2796
aV177137284
p2797
aV163339260
p2798
aV158675030
p2799
aV134985215
p2800
aV200051766
p2801
aV198570057
p2802
aV191418782
p2803
aV186168694
p2804
aV157928546
p2805
aV144492294
p2806
aV199327609
p2807
aV109128420
p2808
aV201805363
p2809
aV199640029
p2810
aV198402327
p2811
aV196278562
p2812
aV183595020
p2813
aV183327255
p2814
aV182535779
p2815
atp2816
a(I89
(lp2817
V175073491
p2818
aV164193307
p2819
aV144667801
p2820
aV194734219
p2821
aV200401076
p2822
aV198896199
p2823
aV196279059
p2824
aV192861702
p2825
aV183749783
p2826
aV169642260
p2827
aV162673938
p2828
aV204022690
p2829
aV203228064
p2830
aV201961064
p2831
aV192862565
p2832
aV182522331
p2833
aV173002886
p2834
aV124355186
p2835
aV203854241
p2836
aV198627124
p2837
aV198398995
p2838
aV196284275
p2839
aV183962064
p2840
aV183908531
p2841
aV183520510
p2842
aV175540080
p2843
aV171842614
p2844
aV150173683
p2845
aV133301920
p2846
aV146144314
p2847
atp2848
a(I90
(lp2849
V196284275
p2850
aV183962064
p2851
aV183908531
p2852
aV183520510
p2853
aV175540080
p2854
aV171842614
p2855
aV150173683
p2856
aV133301920
p2857
aV146144314
p2858
aV187456075
p2859
aV203716759
p2860
aV171913921
p2861
aV153165106
p2862
aV151391017
p2863
aV202086329
p2864
aV197676301
p2865
aV188895472
p2866
aV165862911
p2867
aV138839885
p2868
aV190212756
p2869
aV90790482
p2870
aV67153149
p2871
aV186710115
p2872
aV137771615
p2873
aV201791024
p2874
aV187609102
p2875
aV186026417
p2876
aV182528261
p2877
aV170116308
p2878
aV133967513
p2879
atp2880
a(I91
(lp2881
V202854860
p2882
aV198871428
p2883
aV186045790
p2884
aV183908939
p2885
aV183187670
p2886
aV176087931
p2887
aV109888694
p2888
aV197678988
p2889
aV184316473
p2890
aV183078371
p2891
aV182715141
p2892
aV145737904
p2893
aV200792937
p2894
aV190243286
p2895
aV189556969
p2896
aV186078692
p2897
aV170078578
p2898
aV158198886
p2899
aV140518144
p2900
aV185734555
p2901
aV176980217
p2902
aV158164248
p2903
aV187362577
p2904
aV183583640
p2905
aV182621477
p2906
aV165340740
p2907
aV203469600
p2908
aV196028809
p2909
aV194455942
p2910
aV186169027
p2911
atp2912
a(I92
(lp2913
V183583640
p2914
aV182621477
p2915
aV165340740
p2916
aV203469600
p2917
aV196028809
p2918
aV194455942
p2919
aV186169027
p2920
aV184549234
p2921
aV177316240
p2922
aV176970102
p2923
aV169484119
p2924
aV158711113
p2925
aV136746750
p2926
aV124813318
p2927
aV119238099
p2928
aV199585936
p2929
aV195524667
p2930
aV192793224
p2931
aV178385298
p2932
aV146016736
p2933
aV204022584
p2934
aV199898387
p2935
aV199121827
p2936
aV185437059
p2937
aV183096953
p2938
aV176619450
p2939
aV161716679
p2940
aV147151528
p2941
aV110806859
p2942
aV164120122
p2943
atp2944
a(I93
(lp2945
V131460133
p2946
aV199327824
p2947
aV198439345
p2948
aV193320138
p2949
aV183559423
p2950
aV182521834
p2951
aV177444736
p2952
aV175965135
p2953
aV136746407
p2954
aV133427720
p2955
aV202050938
p2956
aV200977066
p2957
aV200792777
p2958
aV199327646
p2959
aV197699730
p2960
aV185736199
p2961
aV184319673
p2962
aV182522130
p2963
aV169475044
p2964
aV108571643
p2965
aV10014896
p2966
aV203803414
p2967
aV199872842
p2968
aV202327990
p2969
aV200197482
p2970
aV198871347
p2971
aV183325541
p2972
aV177513471
p2973
aV175962596
p2974
aV203800116
p2975
atp2976
a(I94
(lp2977
V198871347
p2978
aV183325541
p2979
aV177513471
p2980
aV175962596
p2981
aV203800116
p2982
aV171543732
p2983
aV177322979
p2984
aV197994650
p2985
aV142343354
p2986
aV184540253
p2987
aV202636521
p2988
aV197075579
p2989
aV192796565
p2990
aV188935226
p2991
aV187287671
p2992
aV182622134
p2993
aV180890047
p2994
aV176623531
p2995
aV164867675
p2996
aV145824667
p2997
aV194231043
p2998
aV106722130
p2999
aV203177543
p3000
aV182716079
p3001
aV182715794
p3002
aV178385333
p3003
aV177217867
p3004
aV172086976
p3005
aV149968129
p3006
aV202696795
p3007
atp3008
a(I95
(lp3009
V200190334
p3010
aV182536327
p3011
aV182385079
p3012
aV177916014
p3013
aV177443925
p3014
aV169483398
p3015
aV163786494
p3016
aV203176535
p3017
aV198373481
p3018
aV185447493
p3019
aV182453905
p3020
aV179312212
p3021
aV168872936
p3022
aV91987995
p3023
aV35695980
p3024
aV202484399
p3025
aV183631033
p3026
aV181950355
p3027
aV181082186
p3028
aV166350972
p3029
aV159219631
p3030
aV8473835
p3031
aV7651158
p3032
aV203468317
p3033
aV182523507
p3034
aV180537017
p3035
aV177444765
p3036
aV176968960
p3037
aV174442363
p3038
aV185736885
p3039
atp3040
a(I96
(lp3041
V7651158
p3042
aV203468317
p3043
aV182523507
p3044
aV180537017
p3045
aV177444765
p3046
aV176968960
p3047
aV174442363
p3048
aV185736885
p3049
aV179733458
p3050
aV176573346
p3051
aV203264673
p3052
aV191462317
p3053
aV182616127
p3054
aV177512930
p3055
aV176623250
p3056
aV7703419
p3057
aV203905611
p3058
aV196166077
p3059
aV194918803
p3060
aV183333768
p3061
aV182523013
p3062
aV178768783
p3063
aV145805595
p3064
aV203321764
p3065
aV198628857
p3066
aV197498854
p3067
aV190854838
p3068
aV183559066
p3069
aV183187410
p3070
aV179734122
p3071
atp3072
a(I97
(lp3073
V177444892
p3074
aV176574213
p3075
aV164882944
p3076
aV203536307
p3077
aV194416441
p3078
aV192065230
p3079
aV181869699
p3080
aV176616235
p3081
aV176578801
p3082
aV168679436
p3083
aV164375683
p3084
aV145079164
p3085
aV111216307
p3086
aV10014900
p3087
aV203900157
p3088
aV200177737
p3089
aV200089534
p3090
aV196182419
p3091
aV193227115
p3092
aV183750463
p3093
aV183463467
p3094
aV177332501
p3095
aV176885928
p3096
aV166576965
p3097
aV159307601
p3098
aV127839562
p3099
aV162592753
p3100
aV200965685
p3101
aV192153307
p3102
aV183751164
p3103
atp3104
a(I98
(lp3105
V177332501
p3106
aV176885928
p3107
aV166576965
p3108
aV159307601
p3109
aV127839562
p3110
aV162592753
p3111
aV200965685
p3112
aV192153307
p3113
aV183751164
p3114
aV183334295
p3115
aV176349051
p3116
aV7651183
p3117
aV196533981
p3118
aV193226803
p3119
aV183586854
p3120
aV182538507
p3121
aV180058612
p3122
aV176374733
p3123
aV173667400
p3124
aV169571534
p3125
aV8271972
p3126
aV8091980
p3127
aV196926032
p3128
aV191016533
p3129
aV190973962
p3130
aV183189785
p3131
aV183052669
p3132
aV182906965
p3133
aV177158488
p3134
aV164835544
p3135
atp3136
a(I99
(lp3137
V190973962
p3138
aV183189785
p3139
aV183052669
p3140
aV182906965
p3141
aV177158488
p3142
aV164835544
p3143
aV163352617
p3144
aV204022411
p3145
aV202314553
p3146
aV201170678
p3147
aV198470970
p3148
aV197499475
p3149
aV196131794
p3150
aV194026751
p3151
aV193489418
p3152
aV190516379
p3153
aV181191405
p3154
aV177829347
p3155
aV166577051
p3156
aV146935916
p3157
aV145079821
p3158
aV122934538
p3159
aV203772070
p3160
aV194415861
p3161
aV192555088
p3162
aV190149486
p3163
aV185737153
p3164
aV183558452
p3165
aV182529660
p3166
aV182345755
p3167
atp3168
a(I100
(lp3169
V159219718
p3170
aV4170840
p3171
aV203508668
p3172
aV195547596
p3173
aV192330321
p3174
aV189710016
p3175
aV188424723
p3176
aV184559894
p3177
aV174137424
p3178
aV155153209
p3179
aV146092007
p3180
aV145079540
p3181
aV203355765
p3182
aV197011656
p3183
aV192379384
p3184
aV177805565
p3185
aV169535664
p3186
aV158705946
p3187
aV145817412
p3188
aV11837802
p3189
aV152914164
p3190
aV183432618
p3191
aV196027424
p3192
aV195997476
p3193
aV195715455
p3194
aV195714526
p3195
aV195607453
p3196
aV190237196
p3197
aV169382279
p3198
aV204022367
p3199
atp3200
a(I101
(lp3201
V195607453
p3202
aV190237196
p3203
aV169382279
p3204
aV204022367
p3205
aV203458143
p3206
aV203172639
p3207
aV201317449
p3208
aV193488095
p3209
aV191938524
p3210
aV183580500
p3211
aV168487353
p3212
aV159306422
p3213
aV203930682
p3214
aV201822270
p3215
aV198663664
p3216
aV187498645
p3217
aV185735477
p3218
aV183630631
p3219
aV169805878
p3220
aV98961430
p3221
aV203913676
p3222
aV203451084
p3223
aV197022955
p3224
aV184479477
p3225
aV184320510
p3226
aV203818439
p3227
aV182523680
p3228
aV175686824
p3229
aV171746590
p3230
aV68502504
p3231
atp3232
a(I102
(lp3233
V196045290
p3234
aV155986348
p3235
aV203264545
p3236
aV181520946
p3237
aV203173808
p3238
aV144260892
p3239
aV7257730
p3240
aV203173568
p3241
aV183909157
p3242
aV183191993
p3243
aV177603435
p3244
aV170048253
p3245
aV83885284
p3246
aV155989493
p3247
aV203233436
p3248
aV191087094
p3249
aV172821428
p3250
aV204022306
p3251
aV191680949
p3252
aV183557809
p3253
aV183556318
p3254
aV182648996
p3255
aV175692458
p3256
aV127556022
p3257
aV195033236
p3258
aV180473469
p3259
aV143043083
p3260
aV204022289
p3261
aV202696537
p3262
aV202273001
p3263
atp3264
a(I103
(lp3265
V175692458
p3266
aV127556022
p3267
aV195033236
p3268
aV180473469
p3269
aV143043083
p3270
aV204022289
p3271
aV202696537
p3272
aV202273001
p3273
aV183584047
p3274
aV182529962
p3275
aV126699673
p3276
aV155974418
p3277
aV204022283
p3278
aV203323442
p3279
aV191687932
p3280
aV188534856
p3281
aV183521668
p3282
aV181258775
p3283
aV183555783
p3284
aV203318397
p3285
aV195938655
p3286
aV192217088
p3287
aV186027404
p3288
aV128361756
p3289
aV198144802
p3290
aV201589235
p3291
aV183332033
p3292
aV176925123
p3293
aV130189469
p3294
aV117769519
p3295
atp3296
a(I104
(lp3297
V117769519
p3298
aV200177527
p3299
aV202010024
p3300
aV171361547
p3301
aV195542236
p3302
aV184317594
p3303
aV164402729
p3304
aV145791945
p3305
aV178105033
p3306
aV203584187
p3307
aV200659454
p3308
aV196662265
p3309
aV195837749
p3310
aV191683076
p3311
aV190187524
p3312
aV174289874
p3313
aV203381516
p3314
aV197899811
p3315
aV193768075
p3316
aV187575338
p3317
aV183581473
p3318
aV183556459
p3319
aV181222613
p3320
aV160304067
p3321
aV193031400
p3322
aV180107073
p3323
aV135636057
p3324
aV202695839
p3325
aV195845204
p3326
aV191845427
p3327
atp3328
a(I105
(lp3329
V181222613
p3330
aV160304067
p3331
aV193031400
p3332
aV180107073
p3333
aV135636057
p3334
aV202695839
p3335
aV195845204
p3336
aV191845427
p3337
aV188182383
p3338
aV186516894
p3339
aV182903653
p3340
aV145735884
p3341
aV183334110
p3342
aV196986070
p3343
aV194223097
p3344
aV185227745
p3345
aV165937397
p3346
aV127729454
p3347
aV204022174
p3348
aV201643660
p3349
aV193889407
p3350
aV193778967
p3351
aV193756982
p3352
aV189585557
p3353
aV189102583
p3354
aV188764947
p3355
aV161503647
p3356
aV160211294
p3357
aV160211075
p3358
aV148889890
p3359
atp3360
a(I106
(lp3361
V204022174
p3362
aV201643660
p3363
aV193889407
p3364
aV193778967
p3365
aV193756982
p3366
aV189585557
p3367
aV189102583
p3368
aV188764947
p3369
aV161503647
p3370
aV160211294
p3371
aV160211075
p3372
aV148889890
p3373
aV192777234
p3374
aV191961053
p3375
aV158818124
p3376
aV127729578
p3377
aV171293781
p3378
aV203595909
p3379
aV200048470
p3380
aV197662462
p3381
aV193561064
p3382
aV192777671
p3383
aV188704572
p3384
aV186618967
p3385
aV183064132
p3386
aV161001947
p3387
aV159287358
p3388
aV185978837
p3389
aV183055352
p3390
aV173609890
p3391
atp3392
a(I107
(lp3393
V192777671
p3394
aV188704572
p3395
aV186618967
p3396
aV183064132
p3397
aV161001947
p3398
aV159287358
p3399
aV185978837
p3400
aV183055352
p3401
aV173609890
p3402
aV197504910
p3403
aV189537629
p3404
aV187745004
p3405
aV180248093
p3406
aV202323721
p3407
aV202121889
p3408
aV195037417
p3409
aV185442785
p3410
aV177672803
p3411
aV167146190
p3412
aV166207254
p3413
aV133402002
p3414
aV203177926
p3415
aV177864938
p3416
aV167087850
p3417
aV160304235
p3418
aV150009154
p3419
aV101576753
p3420
aV203224285
p3421
aV185129667
p3422
aV184041410
p3423
atp3424
a(I108
(lp3425
V177672803
p3426
aV167146190
p3427
aV166207254
p3428
aV133402002
p3429
aV203177926
p3430
aV177864938
p3431
aV167087850
p3432
aV160304235
p3433
aV150009154
p3434
aV101576753
p3435
aV203224285
p3436
aV185129667
p3437
aV184041410
p3438
aV167088188
p3439
aV167087348
p3440
aV203529472
p3441
aV197592297
p3442
aV196903854
p3443
aV193048478
p3444
aV188482141
p3445
aV169015509
p3446
aV167562871
p3447
aV163345996
p3448
aV201609539
p3449
aV200408443
p3450
aV197006129
p3451
aV184180872
p3452
aV182552083
p3453
aV162760197
p3454
aV157785991
p3455
atp3456
a(I109
(lp3457
V201609539
p3458
aV200408443
p3459
aV197006129
p3460
aV184180872
p3461
aV182552083
p3462
aV162760197
p3463
aV157785991
p3464
aV202654516
p3465
aV202071938
p3466
aV199942219
p3467
aV197203574
p3468
aV179033805
p3469
aV177865633
p3470
aV175788982
p3471
aV201549303
p3472
aV203755649
p3473
aV189538118
p3474
aV182551392
p3475
aV176804735
p3476
aV167146919
p3477
aV152059965
p3478
aV203764065
p3479
aV202653827
p3480
aV200235439
p3481
aV199445358
p3482
aV194299151
p3483
aV193551282
p3484
aV167087090
p3485
aV167086466
p3486
aV162708875
p3487
atp3488
a(I110
(lp3489
V152059965
p3490
aV203764065
p3491
aV202653827
p3492
aV200235439
p3493
aV199445358
p3494
aV194299151
p3495
aV193551282
p3496
aV167087090
p3497
aV167086466
p3498
aV162708875
p3499
aV156371948
p3500
aV155841939
p3501
aV131540304
p3502
aV202743653
p3503
aV200412007
p3504
aV192521422
p3505
aV188407139
p3506
aV177865206
p3507
aV155849254
p3508
aV146294670
p3509
aV145726523
p3510
aV202653145
p3511
aV200413212
p3512
aV196807389
p3513
aV194205567
p3514
aV191592295
p3515
aV189820419
p3516
aV184172938
p3517
aV163081718
p3518
aV149516072
p3519
atp3520
a(I111
(lp3521
V145726523
p3522
aV202653145
p3523
aV200413212
p3524
aV196807389
p3525
aV194205567
p3526
aV191592295
p3527
aV189820419
p3528
aV184172938
p3529
aV163081718
p3530
aV149516072
p3531
aV202723978
p3532
aV200409363
p3533
aV194185204
p3534
aV187334373
p3535
aV181040099
p3536
aV204022025
p3537
aV202652148
p3538
aV196886354
p3539
aV196795746
p3540
aV143816608
p3541
aV194173827
p3542
aV198932683
p3543
aV194437122
p3544
aV182978175
p3545
aV203637721
p3546
aV202027194
p3547
aV191679985
p3548
aV198931950
p3549
aV195849760
p3550
aV193826478
p3551
atp3552
a(I112
(lp3553
V191679985
p3554
aV198931950
p3555
aV195849760
p3556
aV193826478
p3557
aV180728473
p3558
aV175789326
p3559
aV163977293
p3560
aV155574334
p3561
aV198931475
p3562
aV193825917
p3563
aV163147102
p3564
aV156301594
p3565
aV203758385
p3566
aV194197297
p3567
aV156258643
p3568
aV129097390
p3569
aV193825426
p3570
aV163137353
p3571
aV155536804
p3572
aV197724958
p3573
aV155842393
p3574
aV103271213
p3575
aV193833095
p3576
aV188345075
p3577
aV187946057
p3578
aV170032369
p3579
aV126512267
p3580
aV203516106
p3581
aV197693604
p3582
aV201119379
p3583
atp3584
a(I113
(lp3585
V188345075
p3586
aV187946057
p3587
aV170032369
p3588
aV126512267
p3589
aV203516106
p3590
aV197693604
p3591
aV201119379
p3592
aV193824837
p3593
aV186481271
p3594
aV179025608
p3595
aV164401463
p3596
aV160274553
p3597
aV155536983
p3598
aV154420946
p3599
aV197021511
p3600
aV194370079
p3601
aV193831241
p3602
aV156375355
p3603
aV149816365
p3604
aV145736171
p3605
aV193830835
p3606
aV189046701
p3607
aV184155784
p3608
aV157945129
p3609
aV132912287
p3610
aV182209872
p3611
aV129949277
p3612
aV203884993
p3613
aV203651107
p3614
aV199445698
p3615
atp3616
a(I114
(lp3617
V184155784
p3618
aV157945129
p3619
aV132912287
p3620
aV182209872
p3621
aV129949277
p3622
aV203884993
p3623
aV203651107
p3624
aV199445698
p3625
aV193827900
p3626
aV134739088
p3627
aV99074489
p3628
aV194198243
p3629
aV192099641
p3630
aV161812821
p3631
aV156249810
p3632
aV141485812
p3633
aV201068393
p3634
aV193826126
p3635
aV167243584
p3636
aV162869754
p3637
aV160505817
p3638
aV160136864
p3639
aV157027004
p3640
aV145910190
p3641
aV133285508
p3642
aV203884454
p3643
aV195777773
p3644
aV195645275
p3645
aV193826370
p3646
aV168817910
p3647
atp3648
a(I115
(lp3649
V160505817
p3650
aV160136864
p3651
aV157027004
p3652
aV145910190
p3653
aV133285508
p3654
aV203884454
p3655
aV195777773
p3656
aV195645275
p3657
aV193826370
p3658
aV168817910
p3659
aV140809446
p3660
aV129037448
p3661
aV193825995
p3662
aV163279865
p3663
aV162993888
p3664
aV160886653
p3665
aV139011410
p3666
aV130037512
p3667
aV128924617
p3668
aV201802799
p3669
aV203799231
p3670
aV196297862
p3671
aV182933559
p3672
aV159706764
p3673
aV127002133
p3674
aV193801556
p3675
aV190699720
p3676
aV163274490
p3677
aV149725673
p3678
aV204021856
p3679
atp3680
a(I116
(lp3681
V193801556
p3682
aV190699720
p3683
aV163274490
p3684
aV149725673
p3685
aV204021856
p3686
aV195416904
p3687
aV191837157
p3688
aV179025718
p3689
aV160885588
p3690
aV193412193
p3691
aV201465478
p3692
aV145522558
p3693
aV127189649
p3694
aV202700189
p3695
aV197047714
p3696
aV190659870
p3697
aV180030776
p3698
aV133226782
p3699
aV105484467
p3700
aV87189804
p3701
aV87187679
p3702
aV80673661
p3703
aV73253687
p3704
aV26342500
p3705
aV153913969
p3706
aV201536663
p3707
aV199435672
p3708
aV196012451
p3709
aV179025491
p3710
aV165547418
p3711
atp3712
a(I117
(lp3713
V201536663
p3714
aV199435672
p3715
aV196012451
p3716
aV179025491
p3717
aV165547418
p3718
aV87187896
p3719
aV80674289
p3720
aV172363619
p3721
aV160984783
p3722
aV87189303
p3723
aV77261446
p3724
aV150303903
p3725
aV193540297
p3726
aV195616859
p3727
aV194596308
p3728
aV144242476
p3729
aV204021789
p3730
aV187613829
p3731
aV187004699
p3732
aV186821075
p3733
aV126512033
p3734
aV100458139
p3735
aV202985035
p3736
aV197678392
p3737
aV188812090
p3738
aV155316203
p3739
aV150439042
p3740
aV147859261
p3741
aV138918603
p3742
aV90520156
p3743
atp3744
a(I118
(lp3745
V155316203
p3746
aV150439042
p3747
aV147859261
p3748
aV138918603
p3749
aV90520156
p3750
aV90515123
p3751
aV191244058
p3752
aV186278956
p3753
aV185943296
p3754
aV163962346
p3755
aV156056931
p3756
aV155295195
p3757
aV107823540
p3758
aV90513102
p3759
aV203431464
p3760
aV203259224
p3761
aV190958794
p3762
aV190030951
p3763
aV187595403
p3764
aV187276056
p3765
aV171258218
p3766
aV156300039
p3767
aV184156769
p3768
aV182049620
p3769
aV157923795
p3770
aV140829702
p3771
aV113093355
p3772
aV69535367
p3773
aV180187680
p3774
aV165883807
p3775
atp3776
a(I119
(lp3777
V157923795
p3778
aV140829702
p3779
aV113093355
p3780
aV69535367
p3781
aV180187680
p3782
aV165883807
p3783
aV147801658
p3784
aV187605656
p3785
aV183999820
p3786
aV181917797
p3787
aV155535149
p3788
aV145821147
p3789
aV129467164
p3790
aV128640488
p3791
aV98157504
p3792
aV198276315
p3793
aV187280859
p3794
aV185150735
p3795
aV184491622
p3796
aV156240825
p3797
aV144345980
p3798
aV131525119
p3799
aV129847931
p3800
aV117965357
p3801
aV199484435
p3802
aV198837657
p3803
aV187984652
p3804
aV187608272
p3805
aV175567409
p3806
aV155992769
p3807
atp3808
a(I120
(lp3809
V147274574
p3810
aV131524694
p3811
aV130239404
p3812
aV35429535
p3813
aV203347268
p3814
aV198837317
p3815
aV181978804
p3816
aV177968453
p3817
aV177139762
p3818
aV162946983
p3819
aV158692825
p3820
aV155538496
p3821
aV137634559
p3822
aV128824608
p3823
aV190999357
p3824
aV203479078
p3825
aV203388863
p3826
aV202649306
p3827
aV198724224
p3828
aV198710692
p3829
aV195020951
p3830
aV188279628
p3831
aV164820837
p3832
aV155845621
p3833
aV123871116
p3834
aV35432187
p3835
aV160670620
p3836
aV119601757
p3837
aV187603233
p3838
aV182977688
p3839
atp3840
a(I121
(lp3841
V35432187
p3842
aV160670620
p3843
aV119601757
p3844
aV187603233
p3845
aV182977688
p3846
aV159559358
p3847
aV159244378
p3848
aV152639355
p3849
aV146880357
p3850
aV142283556
p3851
aV105921167
p3852
aV200076758
p3853
aV199071746
p3854
aV197333418
p3855
aV189176872
p3856
aV185055134
p3857
aV182760396
p3858
aV172656437
p3859
aV162389296
p3860
aV159559793
p3861
aV130542908
p3862
aV35429617
p3863
aV204021679
p3864
aV202836287
p3865
aV202780612
p3866
aV201936108
p3867
aV199071584
p3868
aV183520759
p3869
aV181232692
p3870
aV177120413
p3871
atp3872
a(I122
(lp3873
V176332969
p3874
aV159572377
p3875
aV159089983
p3876
aV155535453
p3877
aV135094409
p3878
aV202804005
p3879
aV199360381
p3880
aV199071416
p3881
aV195314713
p3882
aV171854704
p3883
aV169177777
p3884
aV142925574
p3885
aV134797917
p3886
aV14454439
p3887
aV203329685
p3888
aV198835905
p3889
aV164435724
p3890
aV164402933
p3891
aV158765976
p3892
aV154341396
p3893
aV149514421
p3894
aV145719876
p3895
aV129846487
p3896
aV14454453
p3897
aV199071249
p3898
aV193060889
p3899
aV35430408
p3900
aV198722126
p3901
aV183594250
p3902
aV171855305
p3903
atp3904
a(I123
(lp3905
V14454453
p3906
aV199071249
p3907
aV193060889
p3908
aV35430408
p3909
aV198722126
p3910
aV183594250
p3911
aV171855305
p3912
aV167837929
p3913
aV149665495
p3914
aV124938814
p3915
aV181742811
p3916
aV198835625
p3917
aV145787092
p3918
aV198590370
p3919
aV204021628
p3920
aV68913284
p3921
aV198721660
p3922
aV186987685
p3923
aV184519014
p3924
aV158233183
p3925
aV155993760
p3926
aV204021612
p3927
aV199736367
p3928
aV187985461
p3929
aV183030553
p3930
aV180942915
p3931
aV174012267
p3932
aV156459685
p3933
aV155216210
p3934
aV148295496
p3935
atp3936
a(I124
(lp3937
V135094678
p3938
aV204021610
p3939
aV201911868
p3940
aV199738193
p3941
aV182977284
p3942
aV170260586
p3943
aV170154562
p3944
aV195952750
p3945
aV198870346
p3946
aV167836032
p3947
aV134812843
p3948
aV134368433
p3949
aV172382188
p3950
aV162351697
p3951
aV202718301
p3952
aV200076524
p3953
aV178400861
p3954
aV171114870
p3955
aV158335472
p3956
aV139864777
p3957
aV135596889
p3958
aV199273127
p3959
aV199663770
p3960
aV199483755
p3961
aV191706935
p3962
aV191440208
p3963
aV184258496
p3964
aV180286270
p3965
aV174542183
p3966
aV171847306
p3967
atp3968
a(I125
(lp3969
V199483755
p3970
aV191706935
p3971
aV191440208
p3972
aV184258496
p3973
aV180286270
p3974
aV174542183
p3975
aV171847306
p3976
aV166106884
p3977
aV158335453
p3978
aV155208836
p3979
aV139143828
p3980
aV199521524
p3981
aV186642220
p3982
aV184171614
p3983
aV184051483
p3984
aV180285925
p3985
aV171847489
p3986
aV160885001
p3987
aV159774389
p3988
aV202649026
p3989
aV199928886
p3990
aV199060368
p3991
aV196648205
p3992
aV195312610
p3993
aV178401538
p3994
aV177621021
p3995
aV204021549
p3996
aV200697098
p3997
aV190759381
p3998
aV143749040
p3999
atp4000
a(I126
(lp4001
V137395423
p4002
aV72035248
p4003
aV203183890
p4004
aV174776795
p4005
aV156056682
p4006
aV155216044
p4007
aV140819730
p4008
aV182134013
p4009
aV175243201
p4010
aV174778219
p4011
aV171847099
p4012
aV164435533
p4013
aV159767536
p4014
aV202535322
p4015
aV171846519
p4016
aV170677054
p4017
aV170262773
p4018
aV151623487
p4019
aV148575253
p4020
aV146684379
p4021
aV139147093
p4022
aV176864590
p4023
aV182761984
p4024
aV172503627
p4025
aV155299598
p4026
aV186962704
p4027
aV183593423
p4028
aV172502788
p4029
aV170811789
p4030
aV169737618
p4031
atp4032
a(I127
(lp4033
V172503627
p4034
aV155299598
p4035
aV186962704
p4036
aV183593423
p4037
aV172502788
p4038
aV170811789
p4039
aV169737618
p4040
aV140059139
p4041
aV195391941
p4042
aV187372993
p4043
aV184504367
p4044
aV182817702
p4045
aV178601621
p4046
aV155217678
p4047
aV140937161
p4048
aV203804155
p4049
aV183209980
p4050
aV175348416
p4051
aV172503310
p4052
aV170260023
p4053
aV163751685
p4054
aV149148640
p4055
aV147749047
p4056
aV147747728
p4057
aV106454385
p4058
aV167608092
p4059
aV195294902
p4060
aV178399595
p4061
aV158871423
p4062
aV145628903
p4063
atp4064
a(I128
(lp4065
V142220469
p4066
aV124815834
p4067
aV113097827
p4068
aV108996994
p4069
aV14536810
p4070
aV202534090
p4071
aV198692523
p4072
aV195921943
p4073
aV182761181
p4074
aV180578932
p4075
aV171846261
p4076
aV166995643
p4077
aV147750169
p4078
aV201781421
p4079
aV188995725
p4080
aV185574492
p4081
aV177987936
p4082
aV158328747
p4083
aV155302899
p4084
aV116736338
p4085
aV198723356
p4086
aV185442044
p4087
aV166995987
p4088
aV160076787
p4089
aV147739822
p4090
aV201959821
p4091
aV201958515
p4092
aV201780235
p4093
aV201615883
p4094
aV179526208
p4095
atp4096
a(I129
(lp4097
V201958515
p4098
aV201780235
p4099
aV201615883
p4100
aV179526208
p4101
aV175829069
p4102
aV175047484
p4103
aV168918643
p4104
aV167836609
p4105
aV165976308
p4106
aV155810412
p4107
aV110411921
p4108
aV201715323
p4109
aV182924367
p4110
aV182923639
p4111
aV182210731
p4112
aV171521231
p4113
aV167658177
p4114
aV165819747
p4115
aV163261755
p4116
aV147746928
p4117
aV113321123
p4118
aV78913256
p4119
aV199812847
p4120
aV196029100
p4121
aV194205624
p4122
aV178639554
p4123
aV177620446
p4124
aV176478952
p4125
aV157870695
p4126
aV147749784
p4127
atp4128
a(I130
(lp4129
V147749784
p4130
aV117837817
p4131
aV77363226
p4132
aV202634461
p4133
aV200104416
p4134
aV188477766
p4135
aV184790020
p4136
aV170833359
p4137
aV163043879
p4138
aV157753679
p4139
aV150713219
p4140
aV61910573
p4141
aV203801059
p4142
aV194206633
p4143
aV193072559
p4144
aV192052562
p4145
aV191706536
p4146
aV188475170
p4147
aV182880353
p4148
aV179744195
p4149
aV145820245
p4150
aV113216813
p4151
aV198558448
p4152
aV198174247
p4153
aV189038048
p4154
aV188471212
p4155
aV183205157
p4156
aV170917210
p4157
aV199813288
p4158
aV199631805
p4159
atp4160
a(I131
(lp4161
V183205157
p4162
aV170917210
p4163
aV199813288
p4164
aV199631805
p4165
aV198546728
p4166
aV194183988
p4167
aV182137490
p4168
aV143000904
p4169
aV11864100
p4170
aV196043729
p4171
aV199524213
p4172
aV192157630
p4173
aV170412397
p4174
aV135650664
p4175
aV129820959
p4176
aV11866644
p4177
aV202058624
p4178
aV200305154
p4179
aV202766205
p4180
aV198437467
p4181
aV197628249
p4182
aV178303087
p4183
aV175033877
p4184
aV163978504
p4185
aV150827998
p4186
aV145805333
p4187
aV200845527
p4188
aV194388510
p4189
aV182552934
p4190
aV175088906
p4191
atp4192
a(I132
(lp4193
V164519324
p4194
aV148551940
p4195
aV201391142
p4196
aV185151477
p4197
aV170414264
p4198
aV194760668
p4199
aV194759908
p4200
aV185151109
p4201
aV178696371
p4202
aV145825950
p4203
aV196555649
p4204
aV174284123
p4205
aV148480004
p4206
aV140825494
p4207
aV11840074
p4208
aV198748830
p4209
aV197463492
p4210
aV195344922
p4211
aV194759339
p4212
aV194758353
p4213
aV191959931
p4214
aV190287862
p4215
aV123867870
p4216
aV202049257
p4217
aV195142473
p4218
aV194757604
p4219
aV175056538
p4220
aV168490290
p4221
aV196703106
p4222
aV195351893
p4223
atp4224
a(I133
(lp4225
V195142473
p4226
aV194757604
p4227
aV175056538
p4228
aV168490290
p4229
aV196703106
p4230
aV195351893
p4231
aV182775465
p4232
aV162590562
p4233
aV203719324
p4234
aV203569707
p4235
aV196703683
p4236
aV195920715
p4237
aV195423238
p4238
aV194261869
p4239
aV176581938
p4240
aV174490303
p4241
aV110964047
p4242
aV18021460
p4243
aV197138350
p4244
aV196957031
p4245
aV195087147
p4246
aV194937645
p4247
aV192157304
p4248
aV181527215
p4249
aV178326593
p4250
aV177575251
p4251
aV172388721
p4252
aV204021305
p4253
aV174990093
p4254
aV203325450
p4255
atp4256
a(I134
(lp4257
V177575251
p4258
aV172388721
p4259
aV204021305
p4260
aV174990093
p4261
aV203325450
p4262
aV203241849
p4263
aV197624045
p4264
aV196573814
p4265
aV195235266
p4266
aV184040887
p4267
aV173525649
p4268
aV111311151
p4269
aV201586224
p4270
aV200123408
p4271
aV197766308
p4272
aV195231450
p4273
aV195231110
p4274
aV184834614
p4275
aV183592177
p4276
aV181951054
p4277
aV181527535
p4278
aV177319974
p4279
aV176990697
p4280
aV146684523
p4281
aV133200083
p4282
aV198645150
p4283
aV197706813
p4284
aV129900929
p4285
aV204021280
p4286
aV198720897
p4287
atp4288
a(I135
(lp4289
V197624435
p4290
aV195236815
p4291
aV195234550
p4292
aV190351869
p4293
aV184186967
p4294
aV184000156
p4295
aV174957563
p4296
aV171913887
p4297
aV164708468
p4298
aV203005572
p4299
aV202482791
p4300
aV199483666
p4301
aV178128147
p4302
aV143221132
p4303
aV195281199
p4304
aV187746044
p4305
aV182451727
p4306
aV176581197
p4307
aV172623110
p4308
aV167050016
p4309
aV204021247
p4310
aV201838150
p4311
aV191992326
p4312
aV183999493
p4313
aV178443855
p4314
aV176580762
p4315
aV176580090
p4316
aV171866787
p4317
aV167887408
p4318
aV36540777
p4319
atp4320
a(I136
(lp4321
V176580090
p4322
aV171866787
p4323
aV167887408
p4324
aV36540777
p4325
aV198831082
p4326
aV192753775
p4327
aV188278864
p4328
aV182356363
p4329
aV146197812
p4330
aV198828567
p4331
aV187811813
p4332
aV182759833
p4333
aV171837474
p4334
aV168490787
p4335
aV161104518
p4336
aV159976737
p4337
aV162902610
p4338
aV199483926
p4339
aV196754340
p4340
aV190305640
p4341
aV203819512
p4342
aV204021213
p4343
aV202556820
p4344
aV200775637
p4345
aV198829395
p4346
aV186031356
p4347
aV185575407
p4348
aV184753628
p4349
aV184144328
p4350
aV171184100
p4351
atp4352
a(I137
(lp4353
V171184100
p4354
aV199717629
p4355
aV199328263
p4356
aV198830103
p4357
aV196754631
p4358
aV189633083
p4359
aV186833869
p4360
aV178356485
p4361
aV171854845
p4362
aV161989369
p4363
aV145794448
p4364
aV143484732
p4365
aV200172875
p4366
aV202558698
p4367
aV199327850
p4368
aV197062579
p4369
aV189037968
p4370
aV170595376
p4371
aV170141970
p4372
aV160328490
p4373
aV201560028
p4374
aV119816982
p4375
aV198723745
p4376
aV195295645
p4377
aV179685947
p4378
aV97750492
p4379
aV198467612
p4380
aV169560953
p4381
aV22492065
p4382
aV125212770
p4383
atp4384
a(I138
(lp4385
V169560953
p4386
aV22492065
p4387
aV125212770
p4388
aV199060856
p4389
aV203775494
p4390
aV146195289
p4391
aV145828529
p4392
aV199075008
p4393
aV170812799
p4394
aV137962335
p4395
aV182134689
p4396
aV175747365
p4397
aV143483996
p4398
aV198829639
p4399
aV194331240
p4400
aV189336675
p4401
aV185695709
p4402
aV198650171
p4403
aV189336710
p4404
aV109661453
p4405
aV203919788
p4406
aV189336697
p4407
aV168690985
p4408
aV167024219
p4409
aV163280073
p4410
aV157712021
p4411
aV146196519
p4412
aV80025544
p4413
aV202828669
p4414
aV194685148
p4415
atp4416
a(I139
(lp4417
V168690985
p4418
aV167024219
p4419
aV163280073
p4420
aV157712021
p4421
aV146196519
p4422
aV80025544
p4423
aV202828669
p4424
aV194685148
p4425
aV194303140
p4426
aV189649604
p4427
aV189127246
p4428
aV178407221
p4429
aV202830023
p4430
aV198916519
p4431
aV198631948
p4432
aV195969264
p4433
aV195967980
p4434
aV186574630
p4435
aV178950476
p4436
aV157711886
p4437
aV73262942
p4438
aV159286989
p4439
aV203885454
p4440
aV198632366
p4441
aV157715292
p4442
aV142684531
p4443
aV204021092
p4444
aV203303925
p4445
aV200718867
p4446
aV196298591
p4447
atp4448
a(I140
(lp4449
V195970861
p4450
aV195970165
p4451
aV171753016
p4452
aV157666172
p4453
aV123040903
p4454
aV122694590
p4455
aV167133428
p4456
aV202696384
p4457
aV198631568
p4458
aV196527960
p4459
aV196298106
p4460
aV183677440
p4461
aV140832518
p4462
aV124745867
p4463
aV140978736
p4464
aV203752876
p4465
aV201324459
p4466
aV200717850
p4467
aV179749377
p4468
aV159894505
p4469
aV79275223
p4470
aV199786375
p4471
aV198791860
p4472
aV183667987
p4473
aV181314548
p4474
aV178735083
p4475
aV178162127
p4476
aV83031171
p4477
aV200670193
p4478
aV184012103
p4479
atp4480
a(I141
(lp4481
V183667987
p4482
aV181314548
p4483
aV178735083
p4484
aV178162127
p4485
aV83031171
p4486
aV200670193
p4487
aV184012103
p4488
aV167116652
p4489
aV154711037
p4490
aV128459753
p4491
aV96654707
p4492
aV90162602
p4493
aV198737637
p4494
aV156348451
p4495
aV199239416
p4496
aV198791616
p4497
aV174210621
p4498
aV163310536
p4499
aV157042110
p4500
aV103209430
p4501
aV96509494
p4502
aV201422166
p4503
aV198581950
p4504
aV194371949
p4505
aV194187851
p4506
aV175422181
p4507
aV174640057
p4508
aV156348883
p4509
aV190550150
p4510
aV182999842
p4511
atp4512
a(I142
(lp4513
V178111822
p4514
aV154711974
p4515
aV199809729
p4516
aV185836964
p4517
aV181441246
p4518
aV163318283
p4519
aV140470208
p4520
aV112890024
p4521
aV109660990
p4522
aV91996078
p4523
aV167575475
p4524
aV199318615
p4525
aV199192381
p4526
aV189049088
p4527
aV182999569
p4528
aV168969278
p4529
aV165653387
p4530
aV163872774
p4531
aV98061034
p4532
aV90152641
p4533
aV200645494
p4534
aV200644563
p4535
aV194629795
p4536
aV175994056
p4537
aV162519067
p4538
aV156349086
p4539
aV118166059
p4540
aV77069577
p4541
aV202730029
p4542
aV199329632
p4543
atp4544
a(I143
(lp4545
V200645494
p4546
aV200644563
p4547
aV194629795
p4548
aV175994056
p4549
aV162519067
p4550
aV156349086
p4551
aV118166059
p4552
aV77069577
p4553
aV202730029
p4554
aV199329632
p4555
aV192129271
p4556
aV191958291
p4557
aV177567593
p4558
aV171842333
p4559
aV145818408
p4560
aV168972580
p4561
aV163621603
p4562
aV161015244
p4563
aV150520152
p4564
aV90616939
p4565
aV196094835
p4566
aV172394752
p4567
aV187334866
p4568
aV163381533
p4569
aV197438826
p4570
aV193603496
p4571
aV175666198
p4572
aV112388321
p4573
aV203736940
p4574
aV203506649
p4575
atp4576
a(I144
(lp4577
V203506649
p4578
aV204020959
p4579
aV199329394
p4580
aV199318485
p4581
aV193785454
p4582
aV183093515
p4583
aV177180408
p4584
aV174082835
p4585
aV171610403
p4586
aV165271408
p4587
aV162518233
p4588
aV145818330
p4589
aV201121468
p4590
aV195316985
p4591
aV193785027
p4592
aV175458476
p4593
aV174751704
p4594
aV153503117
p4595
aV203300128
p4596
aV195845228
p4597
aV193785948
p4598
aV178613235
p4599
aV171682175
p4600
aV156351318
p4601
aV94884368
p4602
aV192098696
p4603
aV162518749
p4604
aV65517931
p4605
aV202849030
p4606
aV199046920
p4607
atp4608
a(I145
(lp4609
V65517931
p4610
aV202849030
p4611
aV199046920
p4612
aV173738935
p4613
aV170201683
p4614
aV168955079
p4615
aV80036572
p4616
aV202319343
p4617
aV192490530
p4618
aV187505783
p4619
aV179021230
p4620
aV172932001
p4621
aV156350340
p4622
aV195810359
p4623
aV194757383
p4624
aV187420842
p4625
aV180430235
p4626
aV171604079
p4627
aV171540822
p4628
aV170788405
p4629
aV152601291
p4630
aV152287621
p4631
aV135063497
p4632
aV192871031
p4633
aV188042198
p4634
aV203511052
p4635
aV171714111
p4636
aV203889027
p4637
aV201111377
p4638
aV192929321
p4639
atp4640
a(I146
(lp4641
V192929321
p4642
aV191119414
p4643
aV172879070
p4644
aV98985794
p4645
aV203899579
p4646
aV203888766
p4647
aV190885265
p4648
aV184250280
p4649
aV181847480
p4650
aV174530034
p4651
aV152603080
p4652
aV141052816
p4653
aV132492925
p4654
aV90740746
p4655
aV118400477
p4656
aV204020874
p4657
aV203899005
p4658
aV203888406
p4659
aV194757029
p4660
aV193603196
p4661
aV182157564
p4662
aV172028306
p4663
aV138455024
p4664
aV183819597
p4665
aV180109702
p4666
aV203887771
p4667
aV203650302
p4668
aV162793552
p4669
aV141617889
p4670
aV202822848
p4671
atp4672
a(I147
(lp4673
V183819597
p4674
aV180109702
p4675
aV203887771
p4676
aV203650302
p4677
aV162793552
p4678
aV141617889
p4679
aV202822848
p4680
aV201191740
p4681
aV199281340
p4682
aV190036129
p4683
aV171992304
p4684
aV89981634
p4685
aV204020845
p4686
aV202822783
p4687
aV202821103
p4688
aV202821016
p4689
aV197780582
p4690
aV195849339
p4691
aV171487439
p4692
aV201953185
p4693
aV201953021
p4694
aV190166899
p4695
aV185327400
p4696
aV185325253
p4697
aV175193414
p4698
aV174504169
p4699
aV170409427
p4700
aV167274750
p4701
aV145817007
p4702
aV190166593
p4703
atp4704
a(I148
(lp4705
V167274750
p4706
aV145817007
p4707
aV190166593
p4708
aV179772776
p4709
aV184088247
p4710
aV160156982
p4711
aV203651534
p4712
aV203635430
p4713
aV200696757
p4714
aV194436536
p4715
aV193679827
p4716
aV178184850
p4717
aV145793983
p4718
aV203881480
p4719
aV203650857
p4720
aV203650792
p4721
aV151947789
p4722
aV195171458
p4723
aV191904184
p4724
aV203660911
p4725
aV202821777
p4726
aV198983870
p4727
aV195843539
p4728
aV193093807
p4729
aV202822716
p4730
aV201131470
p4731
aV192183969
p4732
aV178185894
p4733
aV136361092
p4734
aV204020759
p4735
atp4736
a(I149
(lp4737
V204020759
p4738
aV193027539
p4739
aV145825423
p4740
aV204020742
p4741
aV204020739
p4742
aV202821398
p4743
aV201953585
p4744
aV193087236
p4745
aV191293687
p4746
aV135093394
p4747
aV194302695
p4748
aV194176062
p4749
aV179535757
p4750
aV203789266
p4751
aV203628557
p4752
aV202944902
p4753
aV198918266
p4754
aV197947564
p4755
aV194304412
p4756
aV191294683
p4757
aV160087520
p4758
aV145621792
p4759
aV109596621
p4760
aV202898220
p4761
aV192769184
p4762
aV203787015
p4763
aV201976879
p4764
aV201956125
p4765
aV200428826
p4766
aV152034289
p4767
atp4768
a(I150
(lp4769
V201956125
p4770
aV200428826
p4771
aV152034289
p4772
aV202943865
p4773
aV200272390
p4774
aV195302478
p4775
aV184927588
p4776
aV184038726
p4777
aV162987812
p4778
aV161105889
p4779
aV154188443
p4780
aV145804384
p4781
aV145618859
p4782
aV203628351
p4783
aV200517160
p4784
aV197353586
p4785
aV186267770
p4786
aV160829390
p4787
aV137475408
p4788
aV200266867
p4789
aV201292826
p4790
aV193075021
p4791
aV188708025
p4792
aV174796096
p4793
aV159015077
p4794
aV156976213
p4795
aV154624420
p4796
aV66976777
p4797
aV201953988
p4798
aV162922648
p4799
atp4800
a(I151
(lp4801
V188708025
p4802
aV174796096
p4803
aV159015077
p4804
aV156976213
p4805
aV154624420
p4806
aV66976777
p4807
aV201953988
p4808
aV162922648
p4809
aV157314219
p4810
aV145619219
p4811
aV117874342
p4812
aV202822306
p4813
aV201954116
p4814
aV201902807
p4815
aV194180540
p4816
aV191668025
p4817
aV174796516
p4818
aV150699185
p4819
aV125794171
p4820
aV199238372
p4821
aV202259049
p4822
aV201953117
p4823
aV199787197
p4824
aV199300429
p4825
aV182979247
p4826
aV182593993
p4827
aV182593000
p4828
aV172825733
p4829
aV168046610
p4830
aV150672718
p4831
atp4832
a(I152
(lp4833
V145619219
p4834
aV117874342
p4835
aV202822306
p4836
aV201954116
p4837
aV201902807
p4838
aV194180540
p4839
aV191668025
p4840
aV174796516
p4841
aV150699185
p4842
aV125794171
p4843
aV199238372
p4844
aV202259049
p4845
aV201953117
p4846
aV199787197
p4847
aV199300429
p4848
aV182979247
p4849
aV182593993
p4850
aV182593000
p4851
aV172825733
p4852
aV168046610
p4853
aV150672718
p4854
aV85163142
p4855
aV201954221
p4856
aV189166215
p4857
aV184342083
p4858
aV157560439
p4859
aV202944189
p4860
aV202620609
p4861
aV200517328
p4862
aV190049939
p4863
atp4864
a(I153
(lp4865
V199300429
p4866
aV182979247
p4867
aV182593993
p4868
aV182593000
p4869
aV172825733
p4870
aV168046610
p4871
aV150672718
p4872
aV85163142
p4873
aV201954221
p4874
aV189166215
p4875
aV184342083
p4876
aV157560439
p4877
aV202944189
p4878
aV202620609
p4879
aV200517328
p4880
aV190049939
p4881
aV202944053
p4882
aV201976333
p4883
aV199360845
p4884
aV197154092
p4885
aV177439154
p4886
aV202945007
p4887
aV202943119
p4888
aV202942533
p4889
aV202942898
p4890
aV202942324
p4891
aV202908033
p4892
aV202821502
p4893
aV201168731
p4894
aV197537789
p4895
atp4896
a(I154
(lp4897
V197154092
p4898
aV177439154
p4899
aV202945007
p4900
aV202943119
p4901
aV202942533
p4902
aV202942898
p4903
aV202942324
p4904
aV202908033
p4905
aV202821502
p4906
aV201168731
p4907
aV197537789
p4908
aV192156875
p4909
aV191159371
p4910
aV182998092
p4911
aV128984219
p4912
aV202907894
p4913
aV198164281
p4914
aV187875178
p4915
aV203042064
p4916
aV195317266
p4917
aV185744251
p4918
aV182498041
p4919
aV166599655
p4920
aV195259472
p4921
aV193447349
p4922
aV180375082
p4923
aV203041856
p4924
aV202908271
p4925
aV202821953
p4926
aV202468778
p4927
atp4928
a(I155
(lp4929
V203042064
p4930
aV195317266
p4931
aV185744251
p4932
aV182498041
p4933
aV166599655
p4934
aV195259472
p4935
aV193447349
p4936
aV180375082
p4937
aV203041856
p4938
aV202908271
p4939
aV202821953
p4940
aV202468778
p4941
aV196680113
p4942
aV166290932
p4943
aV160086564
p4944
aV145624137
p4945
aV202913940
p4946
aV196680590
p4947
aV196680248
p4948
aV203628503
p4949
aV203628434
p4950
aV200993943
p4951
aV197484124
p4952
aV196678012
p4953
aV195380537
p4954
aV157562333
p4955
aV145620652
p4956
aV142980947
p4957
aV188953037
p4958
aV136621116
p4959
atp4960
a(I156
(lp4961
V188953037
p4962
aV136621116
p4963
aV203782782
p4964
aV203782609
p4965
aV203782463
p4966
aV203165151
p4967
aV190992731
p4968
aV172714519
p4969
aV157330982
p4970
aV145764033
p4971
aV203782330
p4972
aV203782184
p4973
aV203782013
p4974
aV196677808
p4975
aV195805625
p4976
aV195377333
p4977
aV180453488
p4978
aV152290546
p4979
aV142627267
p4980
aV203781848
p4981
aV203781760
p4982
aV202198658
p4983
aV196680418
p4984
aV195380072
p4985
aV180376500
p4986
aV176595617
p4987
aV145619945
p4988
aV150726201
p4989
aV103470199
p4990
aV144014176
p4991
atp4992
a(I157
(lp4993
V195380072
p4994
aV180376500
p4995
aV176595617
p4996
aV145619945
p4997
aV150726201
p4998
aV103470199
p4999
aV144014176
p5000
aV203781924
p5001
aV202045618
p5002
aV191972152
p5003
aV148676528
p5004
aV155026379
p5005
aV197778136
p5006
aV196680828
p5007
aV195788126
p5008
aV194303364
p5009
aV189341586
p5010
aV182497748
p5011
aV147770945
p5012
aV110854100
p5013
aV84973282
p5014
aV202066287
p5015
aV200054205
p5016
aV196680344
p5017
aV124241888
p5018
aV118168247
p5019
aV84974191
p5020
aV201976418
p5021
aV201954884
p5022
aV200687829
p5023
atp5024
a(I158
(lp5025
V200054205
p5026
aV196680344
p5027
aV124241888
p5028
aV118168247
p5029
aV84974191
p5030
aV201976418
p5031
aV201954884
p5032
aV200687829
p5033
aV197075264
p5034
aV196680747
p5035
aV196672652
p5036
aV163269612
p5037
aV142955017
p5038
aV123045941
p5039
aV121930088
p5040
aV111437109
p5041
aV110723042
p5042
aV203041918
p5043
aV203041713
p5044
aV201955733
p5045
aV201953754
p5046
aV196677454
p5047
aV192627303
p5048
aV192443940
p5049
aV116155686
p5050
aV202235508
p5051
aV201976067
p5052
aV201953390
p5053
aV201953302
p5054
aV195825457
p5055
atp5056
a(I159
(lp5057
V201953754
p5058
aV196677454
p5059
aV192627303
p5060
aV192443940
p5061
aV116155686
p5062
aV202235508
p5063
aV201976067
p5064
aV201953390
p5065
aV201953302
p5066
aV195825457
p5067
aV195377129
p5068
aV181060471
p5069
aV167303631
p5070
aV157562947
p5071
aV139632857
p5072
aV122126407
p5073
aV116542006
p5074
aV202389969
p5075
aV201975698
p5076
aV201953241
p5077
aV201953065
p5078
aV196680930
p5079
aV192148427
p5080
aV178360113
p5081
aV124148359
p5082
aV111385306
p5083
aV201976172
p5084
aV201955155
p5085
aV201952961
p5086
aV192149330
p5087
atp5088
a(I160
(lp5089
V196680930
p5090
aV192148427
p5091
aV178360113
p5092
aV124148359
p5093
aV111385306
p5094
aV201976172
p5095
aV201955155
p5096
aV201952961
p5097
aV192149330
p5098
aV181896465
p5099
aV170695941
p5100
aV160035068
p5101
aV157487542
p5102
aV203305837
p5103
aV201975950
p5104
aV195379287
p5105
aV171538650
p5106
aV123044466
p5107
aV93721717
p5108
aV203290511
p5109
aV202803993
p5110
aV196960590
p5111
aV196681249
p5112
aV195938223
p5113
aV195376881
p5114
aV192252551
p5115
aV190424795
p5116
aV180965978
p5117
aV180379826
p5118
aV171307586
p5119
atp5120
a(I161
(lp5121
V201975950
p5122
aV195379287
p5123
aV171538650
p5124
aV123044466
p5125
aV93721717
p5126
aV203290511
p5127
aV202803993
p5128
aV196960590
p5129
aV196681249
p5130
aV195938223
p5131
aV195376881
p5132
aV192252551
p5133
aV190424795
p5134
aV180965978
p5135
aV180379826
p5136
aV171307586
p5137
aV170696587
p5138
aV199225427
p5139
aV199175508
p5140
aV198933433
p5141
aV196679304
p5142
aV196251894
p5143
aV195377733
p5144
aV184635622
p5145
aV163891183
p5146
aV145216773
p5147
aV160556721
p5148
aV203161572
p5149
aV201956923
p5150
aV200517651
p5151
atp5152
a(I162
(lp5153
V195377733
p5154
aV184635622
p5155
aV163891183
p5156
aV145216773
p5157
aV160556721
p5158
aV203161572
p5159
aV201956923
p5160
aV200517651
p5161
aV200517581
p5162
aV195379843
p5163
aV195378005
p5164
aV184634725
p5165
aV170696657
p5166
aV168132320
p5167
aV164823411
p5168
aV136697235
p5169
aV192225452
p5170
aV189325496
p5171
aV128811441
p5172
aV203206155
p5173
aV202945124
p5174
aV199523774
p5175
aV196677639
p5176
aV195939111
p5177
aV195378322
p5178
aV181017895
p5179
aV178626161
p5180
aV173159335
p5181
aV172742969
p5182
aV172123535
p5183
atp5184
a(I163
(lp5185
V128811441
p5186
aV203206155
p5187
aV202945124
p5188
aV199523774
p5189
aV196677639
p5190
aV195939111
p5191
aV195378322
p5192
aV181017895
p5193
aV178626161
p5194
aV173159335
p5195
aV172742969
p5196
aV172123535
p5197
aV151807354
p5198
aV134151128
p5199
aV167756687
p5200
aV199224460
p5201
aV202029724
p5202
aV204020439
p5203
aV201976704
p5204
aV201976609
p5205
aV197800902
p5206
aV195378828
p5207
aV172886657
p5208
aV172740561
p5209
aV171483647
p5210
aV163854295
p5211
aV161485001
p5212
aV158405701
p5213
aV145056715
p5214
aV129561268
p5215
atp5216
a(I164
(lp5217
V158405701
p5218
aV145056715
p5219
aV129561268
p5220
aV201955012
p5221
aV201954391
p5222
aV201953664
p5223
aV199522920
p5224
aV197800675
p5225
aV178732888
p5226
aV169403046
p5227
aV155056727
p5228
aV115582604
p5229
aV204020415
p5230
aV201954314
p5231
aV200095699
p5232
aV199524885
p5233
aV197800841
p5234
aV185029881
p5235
aV182593802
p5236
aV181470231
p5237
aV173151955
p5238
aV169402408
p5239
aV167692617
p5240
aV167686491
p5241
aV155204006
p5242
aV151321975
p5243
aV145733024
p5244
aV136913178
p5245
aV168114668
p5246
aV201956536
p5247
atp5248
a(I165
(lp5249
V155204006
p5250
aV151321975
p5251
aV145733024
p5252
aV136913178
p5253
aV168114668
p5254
aV201956536
p5255
aV201953484
p5256
aV197029987
p5257
aV192236924
p5258
aV179006920
p5259
aV171823429
p5260
aV170696099
p5261
aV170696023
p5262
aV167692206
p5263
aV167305204
p5264
aV163453389
p5265
aV155400315
p5266
aV128797492
p5267
aV198470474
p5268
aV178991679
p5269
aV170767098
p5270
aV153259730
p5271
aV202913237
p5272
aV197800881
p5273
aV197800696
p5274
aV181464945
p5275
aV180597145
p5276
aV178733790
p5277
aV159843427
p5278
aV203651733
p5279
atp5280
a(I166
(lp5281
V159843427
p5282
aV203651733
p5283
aV203651621
p5284
aV201955376
p5285
aV200051760
p5286
aV199523596
p5287
aV196497479
p5288
aV196094068
p5289
aV192347620
p5290
aV190981561
p5291
aV190116937
p5292
aV189220139
p5293
aV201956344
p5294
aV201954723
p5295
aV194248792
p5296
aV182528702
p5297
aV178986606
p5298
aV201954530
p5299
aV200517271
p5300
aV193210492
p5301
aV185029568
p5302
aV159959463
p5303
aV158612648
p5304
aV198873103
p5305
aV198379296
p5306
aV193996216
p5307
aV168113821
p5308
aV199744218
p5309
aV198940614
p5310
aV198628863
p5311
atp5312
a(I167
(lp5313
V194248792
p5314
aV182528702
p5315
aV178986606
p5316
aV201954530
p5317
aV200517271
p5318
aV193210492
p5319
aV185029568
p5320
aV159959463
p5321
aV158612648
p5322
aV198873103
p5323
aV198379296
p5324
aV193996216
p5325
aV168113821
p5326
aV199744218
p5327
aV198940614
p5328
aV198628863
p5329
aV192714263
p5330
aV174712116
p5331
aV172173992
p5332
aV171423641
p5333
aV201371819
p5334
aV194232922
p5335
aV175789121
p5336
aV15531573
p5337
aV203804456
p5338
aV197797966
p5339
aV195399620
p5340
aV204020309
p5341
aV203801535
p5342
aV203770852
p5343
atp5344
a(I168
(lp5345
V203804456
p5346
aV197797966
p5347
aV195399620
p5348
aV204020309
p5349
aV203801535
p5350
aV203770852
p5351
aV197022657
p5352
aV194223269
p5353
aV145835638
p5354
aV201303034
p5355
aV199340309
p5356
aV179286076
p5357
aV175527474
p5358
aV203184466
p5359
aV200948925
p5360
aV199022405
p5361
aV198404605
p5362
aV179638496
p5363
aV179236044
p5364
aV175821834
p5365
aV199706360
p5366
aV199338403
p5367
aV199021837
p5368
aV199020504
p5369
aV190886118
p5370
aV178971817
p5371
aV178588718
p5372
aV171423935
p5373
aV166797587
p5374
aV166221361
p5375
atp5376
a(I169
(lp5377
V199020504
p5378
aV190886118
p5379
aV178971817
p5380
aV178588718
p5381
aV171423935
p5382
aV166797587
p5383
aV166221361
p5384
aV127833240
p5385
aV204020280
p5386
aV203184280
p5387
aV199082382
p5388
aV195101641
p5389
aV191418257
p5390
aV199073353
p5391
aV185650499
p5392
aV179294796
p5393
aV175519405
p5394
aV166795749
p5395
aV156285651
p5396
aV200463433
p5397
aV200185900
p5398
aV191618331
p5399
aV180547523
p5400
aV176582908
p5401
aV155054855
p5402
aV202272725
p5403
aV200352264
p5404
aV165147685
p5405
aV155053720
p5406
aV198254279
p5407
atp5408
a(I170
(lp5409
V200261279
p5410
aV197832057
p5411
aV191618782
p5412
aV145729579
p5413
aV204020234
p5414
aV200367953
p5415
aV200249570
p5416
aV197810920
p5417
aV167130434
p5418
aV204020219
p5419
aV198179811
p5420
aV197881427
p5421
aV197831667
p5422
aV194593331
p5423
aV194492548
p5424
aV193888483
p5425
aV191445220
p5426
aV155055697
p5427
aV203628040
p5428
aV196052762
p5429
aV198151291
p5430
aV195461454
p5431
aV202997030
p5432
aV203628284
p5433
aV203627895
p5434
aV200629114
p5435
aV199207132
p5436
aV195869643
p5437
aV185278596
p5438
aV169121805
p5439
atp5440
a(I171
(lp5441
V200629114
p5442
aV199207132
p5443
aV195869643
p5444
aV185278596
p5445
aV169121805
p5446
aV168874557
p5447
aV151442462
p5448
aV128503770
p5449
aV83701938
p5450
aV203627644
p5451
aV203627299
p5452
aV202131042
p5453
aV200176505
p5454
aV199476958
p5455
aV198635376
p5456
aV173286646
p5457
aV151443930
p5458
aV203627557
p5459
aV203627365
p5460
aV202233362
p5461
aV199522342
p5462
aV197872464
p5463
aV166863664
p5464
aV187290807
p5465
aV155054373
p5466
aV203095099
p5467
aV145802733
p5468
aV203090238
p5469
aV199311689
p5470
aV185179436
p5471
atp5472
a(I172
(lp5473
V59298535
p5474
aV203090175
p5475
aV202896423
p5476
aV201976515
p5477
aV199312246
p5478
aV199311465
p5479
aV199310905
p5480
aV159354142
p5481
aV105262561
p5482
aV200517491
p5483
aV199312618
p5484
aV199312442
p5485
aV199311829
p5486
aV185980349
p5487
aV170964490
p5488
aV164832591
p5489
aV202702975
p5490
aV199310671
p5491
aV199310430
p5492
aV172886981
p5493
aV145820540
p5494
aV137414556
p5495
aV203783349
p5496
aV203783123
p5497
aV197662113
p5498
aV184526096
p5499
aV125120253
p5500
aV124258610
p5501
aV199878247
p5502
aV202440024
p5503
atp5504
a(I173
(lp5505
V203783123
p5506
aV197662113
p5507
aV184526096
p5508
aV125120253
p5509
aV124258610
p5510
aV199878247
p5511
aV202440024
p5512
aV202341757
p5513
aV163561658
p5514
aV126340941
p5515
aV105406411
p5516
aV203779895
p5517
aV192361310
p5518
aV190735205
p5519
aV139702391
p5520
aV139701836
p5521
aV135231044
p5522
aV201584810
p5523
aV132771859
p5524
aV204020085
p5525
aV203108118
p5526
aV202942821
p5527
aV202365487
p5528
aV199317635
p5529
aV190781605
p5530
aV190646586
p5531
aV188815691
p5532
aV165105933
p5533
aV147571628
p5534
aV203490692
p5535
atp5536
a(I174
(lp5537
V203490630
p5538
aV203095570
p5539
aV202365138
p5540
aV199930237
p5541
aV187210582
p5542
aV169570937
p5543
aV165107113
p5544
aV165105900
p5545
aV153855125
p5546
aV89870505
p5547
aV84749324
p5548
aV203490767
p5549
aV192294904
p5550
aV190644352
p5551
aV178464263
p5552
aV176987575
p5553
aV149564964
p5554
aV148815940
p5555
aV147572265
p5556
aV139702024
p5557
aV201180188
p5558
aV197496870
p5559
aV190093791
p5560
aV187209146
p5561
aV161116170
p5562
aV149558758
p5563
aV137143075
p5564
aV130833275
p5565
aV204020057
p5566
aV203185627
p5567
atp5568
a(I175
(lp5569
V161116170
p5570
aV149558758
p5571
aV137143075
p5572
aV130833275
p5573
aV204020057
p5574
aV203185627
p5575
aV201183318
p5576
aV201180396
p5577
aV201179711
p5578
aV199858442
p5579
aV199148669
p5580
aV197203059
p5581
aV194159254
p5582
aV192077620
p5583
aV190785612
p5584
aV190092829
p5585
aV164833624
p5586
aV162027445
p5587
aV160040605
p5588
aV158467707
p5589
aV148914805
p5590
aV141710952
p5591
aV201807639
p5592
aV201183437
p5593
aV192361066
p5594
aV190737591
p5595
aV190097858
p5596
aV144886641
p5597
aV140282216
p5598
aV202660613
p5599
atp5600
a(I176
(lp5601
V162601197
p5602
aV151979218
p5603
aV149105974
p5604
aV145784405
p5605
aV143995592
p5606
aV134863186
p5607
aV134861973
p5608
aV126341853
p5609
aV46102971
p5610
aV158663032
p5611
aV202503346
p5612
aV199610018
p5613
aV198820150
p5614
aV183436593
p5615
aV165785936
p5616
aV160964097
p5617
aV159471931
p5618
aV144059030
p5619
aV141711157
p5620
aV136087424
p5621
aV126350020
p5622
aV204020013
p5623
aV202695831
p5624
aV202500708
p5625
aV199133558
p5626
aV181697848
p5627
aV177670415
p5628
aV162026971
p5629
aV147816480
p5630
aV147112218
p5631
atp5632
a(I177
(lp5633
V202695831
p5634
aV202500708
p5635
aV199133558
p5636
aV181697848
p5637
aV177670415
p5638
aV162026971
p5639
aV147816480
p5640
aV147112218
p5641
aV143333225
p5642
aV143004737
p5643
aV199612155
p5644
aV198535808
p5645
aV193799261
p5646
aV158575584
p5647
aV150165780
p5648
aV145823197
p5649
aV126339916
p5650
aV166553197
p5651
aV181784410
p5652
aV200173373
p5653
aV175267944
p5654
aV163561759
p5655
aV148414361
p5656
aV134862757
p5657
aV199609686
p5658
aV194676087
p5659
aV137909912
p5660
aV131873334
p5661
aV203491307
p5662
aV200600483
p5663
atp5664
a(I178
(lp5665
V200174568
p5666
aV194198052
p5667
aV161181991
p5668
aV203107645
p5669
aV203107388
p5670
aV201280018
p5671
aV200174307
p5672
aV196633362
p5673
aV190162817
p5674
aV147815877
p5675
aV143294836
p5676
aV124074748
p5677
aV201153439
p5678
aV200176045
p5679
aV174350292
p5680
aV161660752
p5681
aV145804444
p5682
aV198599214
p5683
aV160269501
p5684
aV157203535
p5685
aV133597382
p5686
aV200515916
p5687
aV198826942
p5688
aV181781650
p5689
aV153855547
p5690
aV124258299
p5691
aV203927938
p5692
aV203802470
p5693
aV203642298
p5694
aV203458174
p5695
atp5696
a(I179
(lp5697
V198826942
p5698
aV181781650
p5699
aV153855547
p5700
aV124258299
p5701
aV203927938
p5702
aV203802470
p5703
aV203642298
p5704
aV203458174
p5705
aV202700203
p5706
aV202440582
p5707
aV200515884
p5708
aV199367104
p5709
aV93141715
p5710
aV203109609
p5711
aV197693429
p5712
aV182652143
p5713
aV181780650
p5714
aV161988461
p5715
aV159106253
p5716
aV136087071
p5717
aV203491807
p5718
aV203109536
p5719
aV203109306
p5720
aV185297571
p5721
aV181330025
p5722
aV177679179
p5723
aV203491937
p5724
aV203491631
p5725
aV203107484
p5726
aV200177320
p5727
atp5728
a(I180
(lp5729
V200177015
p5730
aV194599341
p5731
aV193723146
p5732
aV190123940
p5733
aV188305482
p5734
aV154919325
p5735
aV203491382
p5736
aV202779488
p5737
aV202777296
p5738
aV199612375
p5739
aV194287551
p5740
aV190225264
p5741
aV189393357
p5742
aV188371308
p5743
aV178907066
p5744
aV153905942
p5745
aV137901172
p5746
aV134864169
p5747
aV129867984
p5748
aV199092803
p5749
aV203859288
p5750
aV203107546
p5751
aV195751750
p5752
aV190432267
p5753
aV189426582
p5754
aV175632070
p5755
aV144962249
p5756
aV135004495
p5757
aV202517612
p5758
aV203165270
p5759
atp5760
a(I181
(lp5761
V195751750
p5762
aV190432267
p5763
aV189426582
p5764
aV175632070
p5765
aV144962249
p5766
aV135004495
p5767
aV202517612
p5768
aV203165270
p5769
aV173063420
p5770
aV202911981
p5771
aV203363078
p5772
aV202439596
p5773
aV201451457
p5774
aV198372378
p5775
aV193310060
p5776
aV189829326
p5777
aV189827895
p5778
aV187477896
p5779
aV184622885
p5780
aV163869090
p5781
aV160945689
p5782
aV157958159
p5783
aV141338664
p5784
aV134708938
p5785
aV110547101
p5786
aV203361291
p5787
aV203110580
p5788
aV203107353
p5789
aV190396041
p5790
aV189759144
p5791
atp5792
a(I182
(lp5793
V189334674
p5794
aV175631904
p5795
aV133597774
p5796
aV203457911
p5797
aV203457771
p5798
aV200340395
p5799
aV190397607
p5800
aV189828377
p5801
aV184939645
p5802
aV177930438
p5803
aV170343963
p5804
aV145821413
p5805
aV138947840
p5806
aV203458413
p5807
aV201067924
p5808
aV193329937
p5809
aV185083106
p5810
aV145365763
p5811
aV136087721
p5812
aV200013518
p5813
aV194773579
p5814
aV184877586
p5815
aV181637663
p5816
aV173315348
p5817
aV172629621
p5818
aV147810856
p5819
aV142382512
p5820
aV125862029
p5821
aV204019819
p5822
aV202012756
p5823
atp5824
a(I183
(lp5825
V200352469
p5826
aV199082866
p5827
aV197858052
p5828
aV194771334
p5829
aV193077119
p5830
aV192913560
p5831
aV177227595
p5832
aV171305582
p5833
aV157603395
p5834
aV147956988
p5835
aV134708716
p5836
aV127225444
p5837
aV125847191
p5838
aV197680899
p5839
aV194774737
p5840
aV190681028
p5841
aV189669034
p5842
aV189668262
p5843
aV187696930
p5844
aV182536640
p5845
aV176543625
p5846
aV175149800
p5847
aV167358491
p5848
aV164545273
p5849
aV160799492
p5850
aV157220919
p5851
aV142942824
p5852
aV129020094
p5853
aV159451940
p5854
aV202012298
p5855
atp5856
a(I184
(lp5857
V160799492
p5858
aV157220919
p5859
aV142942824
p5860
aV129020094
p5861
aV159451940
p5862
aV202012298
p5863
aV194727309
p5864
aV192914224
p5865
aV190885428
p5866
aV190685217
p5867
aV182430563
p5868
aV182137293
p5869
aV156585268
p5870
aV137915261
p5871
aV130930617
p5872
aV194942294
p5873
aV185308679
p5874
aV182478001
p5875
aV179517446
p5876
aV169953677
p5877
aV169753090
p5878
aV167127536
p5879
aV164545655
p5880
aV162022904
p5881
aV153917813
p5882
aV142994488
p5883
aV203507317
p5884
aV200022625
p5885
aV192203045
p5886
aV185144482
p5887
atp5888
a(I185
(lp5889
V175439987
p5890
aV171407560
p5891
aV156573824
p5892
aV147956102
p5893
aV145823487
p5894
aV131913600
p5895
aV203507274
p5896
aV203507210
p5897
aV203507144
p5898
aV202699919
p5899
aV197101387
p5900
aV182478100
p5901
aV163212219
p5902
aV144979236
p5903
aV133406201
p5904
aV113880022
p5905
aV69038378
p5906
aV203506701
p5907
aV203506644
p5908
aV189666053
p5909
aV189665505
p5910
aV172144463
p5911
aV170410603
p5912
aV158360435
p5913
aV143780312
p5914
aV65903484
p5915
aV185007192
p5916
aV200516108
p5917
aV197301484
p5918
aV193188742
p5919
atp5920
a(I186
(lp5921
V189666053
p5922
aV189665505
p5923
aV172144463
p5924
aV170410603
p5925
aV158360435
p5926
aV143780312
p5927
aV65903484
p5928
aV185007192
p5929
aV200516108
p5930
aV197301484
p5931
aV193188742
p5932
aV192368957
p5933
aV184670117
p5934
aV184654566
p5935
aV177988166
p5936
aV68508874
p5937
aV201958883
p5938
aV190946256
p5939
aV182303129
p5940
aV166908696
p5941
aV172851602
p5942
aV105326192
p5943
aV193957786
p5944
aV196914169
p5945
aV195457464
p5946
aV194297085
p5947
aV192413964
p5948
aV187968454
p5949
aV184670353
p5950
aV172950285
p5951
atp5952
a(I187
(lp5953
V145792958
p5954
aV113880718
p5955
aV108325908
p5956
aV198624736
p5957
aV195088972
p5958
aV193720107
p5959
aV188463903
p5960
aV185440128
p5961
aV157202539
p5962
aV108325763
p5963
aV196459886
p5964
aV186613942
p5965
aV186145977
p5966
aV116080978
p5967
aV89509013
p5968
aV203886575
p5969
aV202786293
p5970
aV202621417
p5971
aV199544914
p5972
aV190268462
p5973
aV172950120
p5974
aV165235708
p5975
aV164197192
p5976
aV151238367
p5977
aV116062477
p5978
aV202620687
p5979
aV200308501
p5980
aV200062539
p5981
aV197101248
p5982
aV196493573
p5983
atp5984
a(I188
(lp5985
V165235708
p5986
aV164197192
p5987
aV151238367
p5988
aV116062477
p5989
aV202620687
p5990
aV200308501
p5991
aV200062539
p5992
aV197101248
p5993
aV196493573
p5994
aV185334759
p5995
aV172530024
p5996
aV163941616
p5997
aV163810335
p5998
aV120599344
p5999
aV102974102
p6000
aV202786301
p6001
aV202620757
p6002
aV199807485
p6003
aV199204293
p6004
aV189524023
p6005
aV186614324
p6006
aV182247308
p6007
aV120535886
p6008
aV198303396
p6009
aV192366050
p6010
aV181824609
p6011
aV175343703
p6012
aV172949120
p6013
aV172948973
p6014
aV170793040
p6015
atp6016
a(I189
(lp6017
V198303396
p6018
aV192366050
p6019
aV181824609
p6020
aV175343703
p6021
aV172949120
p6022
aV172948973
p6023
aV170793040
p6024
aV168359310
p6025
aV119252988
p6026
aV173142396
p6027
aV203392284
p6028
aV184814926
p6029
aV182982393
p6030
aV163639871
p6031
aV153273243
p6032
aV151238689
p6033
aV126838492
p6034
aV202887733
p6035
aV200516370
p6036
aV199192518
p6037
aV182263985
p6038
aV175497466
p6039
aV148320599
p6040
aV133054347
p6041
aV36249161
p6042
aV203578802
p6043
aV203111245
p6044
aV202621128
p6045
aV198917609
p6046
aV187920131
p6047
atp6048
a(I190
(lp6049
V182135486
p6050
aV171721358
p6051
aV169982036
p6052
aV159122267
p6053
aV128178949
p6054
aV127950722
p6055
aV68509700
p6056
aV203578054
p6057
aV203111714
p6058
aV202888526
p6059
aV202888184
p6060
aV202674628
p6061
aV202621305
p6062
aV198331896
p6063
aV196087065
p6064
aV190442274
p6065
aV189064242
p6066
aV182122868
p6067
aV160200162
p6068
aV160098711
p6069
aV155602209
p6070
aV153910958
p6071
aV119253608
p6072
aV79679645
p6073
aV204019628
p6074
aV202888696
p6075
aV202620846
p6076
aV201113917
p6077
aV200615105
p6078
aV192901289
p6079
atp6080
a(I191
(lp6081
V153910958
p6082
aV119253608
p6083
aV79679645
p6084
aV204019628
p6085
aV202888696
p6086
aV202620846
p6087
aV201113917
p6088
aV200615105
p6089
aV192901289
p6090
aV187971257
p6091
aV176325355
p6092
aV172634679
p6093
aV170152139
p6094
aV160099163
p6095
aV202713672
p6096
aV202621023
p6097
aV202620580
p6098
aV200089655
p6099
aV198653477
p6100
aV193610408
p6101
aV193383331
p6102
aV189262917
p6103
aV189065233
p6104
aV187039806
p6105
aV103934732
p6106
aV202620934
p6107
aV202382652
p6108
aV186198016
p6109
aV182241708
p6110
aV182086370
p6111
atp6112
a(I192
(lp6113
V182086370
p6114
aV177338917
p6115
aV174959142
p6116
aV160200611
p6117
aV147250744
p6118
aV203133332
p6119
aV203111650
p6120
aV203111564
p6121
aV201071892
p6122
aV184854557
p6123
aV182083707
p6124
aV181184350
p6125
aV178304107
p6126
aV172035038
p6127
aV167844013
p6128
aV138133642
p6129
aV111556534
p6130
aV203505112
p6131
aV202622403
p6132
aV201536267
p6133
aV200021718
p6134
aV194515730
p6135
aV194396347
p6136
aV192047575
p6137
aV180631783
p6138
aV174880962
p6139
aV174879275
p6140
aV168225197
p6141
aV167843561
p6142
aV204019583
p6143
atp6144
a(I193
(lp6145
V194396347
p6146
aV192047575
p6147
aV180631783
p6148
aV174880962
p6149
aV174879275
p6150
aV168225197
p6151
aV167843561
p6152
aV204019583
p6153
aV203917909
p6154
aV203505349
p6155
aV203504557
p6156
aV202622733
p6157
aV201076905
p6158
aV200550217
p6159
aV194395920
p6160
aV192047944
p6161
aV188989311
p6162
aV173098323
p6163
aV83642861
p6164
aV202988236
p6165
aV200537255
p6166
aV197377469
p6167
aV189540161
p6168
aV185454133
p6169
aV183065951
p6170
aV182980778
p6171
aV182516517
p6172
aV181602041
p6173
aV180631263
p6174
aV163780082
p6175
atp6176
a(I194
(lp6177
V146212370
p6178
aV124090553
p6179
aV190665259
p6180
aV203780968
p6181
aV203577903
p6182
aV203022687
p6183
aV203021691
p6184
aV202622262
p6185
aV190943389
p6186
aV190333131
p6187
aV182551278
p6188
aV181817731
p6189
aV166372093
p6190
aV166276475
p6191
aV160728034
p6192
aV153115801
p6193
aV203577769
p6194
aV203577714
p6195
aV203505057
p6196
aV193621174
p6197
aV182717715
p6198
aV182429662
p6199
aV171730227
p6200
aV162729493
p6201
aV161030493
p6202
aV151994202
p6203
aV141517675
p6204
aV106028133
p6205
aV202576140
p6206
aV194522099
p6207
atp6208
a(I195
(lp6209
V106028133
p6210
aV202576140
p6211
aV194522099
p6212
aV194510066
p6213
aV193940563
p6214
aV163780480
p6215
aV157322220
p6216
aV203594318
p6217
aV189539513
p6218
aV180967955
p6219
aV172817616
p6220
aV162829204
p6221
aV160322800
p6222
aV202314505
p6223
aV188430633
p6224
aV188020578
p6225
aV188011577
p6226
aV172817271
p6227
aV203223072
p6228
aV173377429
p6229
aV197753228
p6230
aV188428823
p6231
aV187244062
p6232
aV182545980
p6233
aV181010469
p6234
aV177141729
p6235
aV171943475
p6236
aV134970623
p6237
aV203787220
p6238
aV199015549
p6239
atp6240
a(I196
(lp6241
V196331696
p6242
aV194521566
p6243
aV189287690
p6244
aV182766757
p6245
aV160217718
p6246
aV151993939
p6247
aV123453033
p6248
aV199019457
p6249
aV181606499
p6250
aV177676207
p6251
aV172811996
p6252
aV160728780
p6253
aV146214049
p6254
aV199576838
p6255
aV199018169
p6256
aV193013544
p6257
aV188421502
p6258
aV187001934
p6259
aV185270149
p6260
aV183180513
p6261
aV175268390
p6262
aV175267776
p6263
aV171181294
p6264
aV170343770
p6265
aV145737226
p6266
aV126420313
p6267
aV150970207
p6268
aV203265513
p6269
aV199326448
p6270
aV198516995
p6271
atp6272
a(I197
(lp6273
V126420313
p6274
aV150970207
p6275
aV203265513
p6276
aV199326448
p6277
aV198516995
p6278
aV191415679
p6279
aV187244292
p6280
aV186557524
p6281
aV174472159
p6282
aV163935959
p6283
aV155066573
p6284
aV141216713
p6285
aV202617020
p6286
aV202616770
p6287
aV199011185
p6288
aV190266862
p6289
aV180893711
p6290
aV170591094
p6291
aV126421469
p6292
aV172375262
p6293
aV195519340
p6294
aV202616380
p6295
aV202457976
p6296
aV201145263
p6297
aV201144779
p6298
aV199326617
p6299
aV193366900
p6300
aV189630464
p6301
aV178756774
p6302
aV169862763
p6303
atp6304
a(I198
(lp6305
V153629833
p6306
aV148383092
p6307
aV142988201
p6308
aV136618834
p6309
aV126348914
p6310
aV126346363
p6311
aV121376603
p6312
aV181523340
p6313
aV200794814
p6314
aV199010928
p6315
aV191029884
p6316
aV176078686
p6317
aV175555589
p6318
aV172809829
p6319
aV172809565
p6320
aV170598673
p6321
aV159442369
p6322
aV203440297
p6323
aV203166086
p6324
aV176082128
p6325
aV89585246
p6326
aV200865686
p6327
aV199576761
p6328
aV194352091
p6329
aV183961562
p6330
aV172809192
p6331
aV171953780
p6332
aV162585714
p6333
aV160176759
p6334
aV126420703
p6335
atp6336
a(I199
(lp6337
V194352091
p6338
aV183961562
p6339
aV172809192
p6340
aV171953780
p6341
aV162585714
p6342
aV160176759
p6343
aV126420703
p6344
aV105416018
p6345
aV54530181
p6346
aV199203442
p6347
aV194170455
p6348
aV187765753
p6349
aV186796164
p6350
aV186267577
p6351
aV181615402
p6352
aV170911960
p6353
aV144426717
p6354
aV143135201
p6355
aV126345359
p6356
aV194554478
p6357
aV194169962
p6358
aV190660378
p6359
aV183266327
p6360
aV177435533
p6361
aV162517404
p6362
aV145818524
p6363
aV137479809
p6364
aV129227031
p6365
aV202616589
p6366
aV202616503
p6367
atp6368
a.